(dp1
S'test'
p2
(lp3
(ccopy_reg
_reconstructor
p4
(cSample
Sample
p5
c__builtin__
object
p6
NtRp7
(dp8
S'channels'
p9
I2
sS'path'
p10
S'/home/ubuntu/DSSGAN/data/test/RB_TheResident/mix.wav'
p11
sS'duration'
p12
F190.40362811791383
sS'sample_rate'
p13
I44100
sbg4
(g5
g6
NtRp14
(dp15
g9
I2
sg10
S'/home/ubuntu/DSSGAN/data/test/RB_TheResident/acc.wav'
p16
sg12
F190.40362811791383
sg13
I44100
sbg4
(g5
g6
NtRp17
(dp18
g9
I2
sg10
S'/home/ubuntu/DSSGAN/data/test/RB_TheResident/drums.wav'
p19
sg12
F190.40362811791383
sg13
I44100
sbtp20
a(g4
(g5
g6
NtRp21
(dp22
g9
I2
sg10
S'/home/ubuntu/DSSGAN/data/test/Tom McKenzie - Directions/mix.wav'
p23
sg12
F175.65895691609978
sg13
I44100
sbg4
(g5
g6
NtRp24
(dp25
g9
I2
sg10
S'/home/ubuntu/DSSGAN/data/test/Tom McKenzie - Directions/acc.wav'
p26
sg12
F175.65895691609978
sg13
I44100
sbg4
(g5
g6
NtRp27
(dp28
g9
I2
sg10
S'/home/ubuntu/DSSGAN/data/test/Tom McKenzie - Directions/drums.wav'
p29
sg12
F175.65895691609978
sg13
I44100
sbtp30
a(g4
(g5
g6
NtRp31
(dp32
g9
I2
sg10
S'/home/ubuntu/DSSGAN/data/test/PR_OhNo/mix.wav'
p33
sg12
F137.20671201814059
sg13
I44100
sbg4
(g5
g6
NtRp34
(dp35
g9
I2
sg10
S'/home/ubuntu/DSSGAN/data/test/PR_OhNo/acc.wav'
p36
sg12
F137.20671201814059
sg13
I44100
sbg4
(g5
g6
NtRp37
(dp38
g9
I2
sg10
S'/home/ubuntu/DSSGAN/data/test/PR_OhNo/drums.wav'
p39
sg12
F137.20671201814059
sg13
I44100
sbtp40
a(g4
(g5
g6
NtRp41
(dp42
g9
I2
sg10
S'/home/ubuntu/DSSGAN/data/test/AF_Stacks/mix.wav'
p43
sg12
F194.23492063492063
sg13
I44100
sbg4
(g5
g6
NtRp44
(dp45
g9
I2
sg10
S'/home/ubuntu/DSSGAN/data/test/AF_Stacks/acc.wav'
p46
sg12
F194.23492063492063
sg13
I44100
sbg4
(g5
g6
NtRp47
(dp48
g9
I2
sg10
S'/home/ubuntu/DSSGAN/data/test/AF_Stacks/drums.wav'
p49
sg12
F194.23492063492063
sg13
I44100
sbtp50
a(g4
(g5
g6
NtRp51
(dp52
g9
I2
sg10
S"/home/ubuntu/DSSGAN/data/test/Angels In Amplifiers - I'm Alright/mix.wav"
p53
sg12
F179.39736961451248
sg13
I44100
sbg4
(g5
g6
NtRp54
(dp55
g9
I2
sg10
S"/home/ubuntu/DSSGAN/data/test/Angels In Amplifiers - I'm Alright/acc.wav"
p56
sg12
F179.39736961451248
sg13
I44100
sbg4
(g5
g6
NtRp57
(dp58
g9
I2
sg10
S"/home/ubuntu/DSSGAN/data/test/Angels In Amplifiers - I'm Alright/drums.wav"
p59
sg12
F179.39736961451248
sg13
I44100
sbtp60
a(g4
(g5
g6
NtRp61
(dp62
g9
I2
sg10
S'/home/ubuntu/DSSGAN/data/test/Raft Monk - Tiring/mix.wav'
p63
sg12
F212.06784580498865
sg13
I44100
sbg4
(g5
g6
NtRp64
(dp65
g9
I2
sg10
S'/home/ubuntu/DSSGAN/data/test/Raft Monk - Tiring/acc.wav'
p66
sg12
F212.06784580498865
sg13
I44100
sbg4
(g5
g6
NtRp67
(dp68
g9
I2
sg10
S'/home/ubuntu/DSSGAN/data/test/Raft Monk - Tiring/drums.wav'
p69
sg12
F212.06784580498865
sg13
I44100
sbtp70
a(g4
(g5
g6
NtRp71
(dp72
g9
I2
sg10
S'/home/ubuntu/DSSGAN/data/test/The Easton Ellises (Baumi) - SDRNR/mix.wav'
p73
sg12
F234.49832199546486
sg13
I44100
sbg4
(g5
g6
NtRp74
(dp75
g9
I2
sg10
S'/home/ubuntu/DSSGAN/data/test/The Easton Ellises (Baumi) - SDRNR/acc.wav'
p76
sg12
F234.49832199546486
sg13
I44100
sbg4
(g5
g6
NtRp77
(dp78
g9
I2
sg10
S'/home/ubuntu/DSSGAN/data/test/The Easton Ellises (Baumi) - SDRNR/drums.wav'
p79
sg12
F234.49832199546486
sg13
I44100
sbtp80
a(g4
(g5
g6
NtRp81
(dp82
g9
I2
sg10
S'/home/ubuntu/DSSGAN/data/test/Zeno - Signs/mix.wav'
p83
sg12
F234.19646258503403
sg13
I44100
sbg4
(g5
g6
NtRp84
(dp85
g9
I2
sg10
S'/home/ubuntu/DSSGAN/data/test/Zeno - Signs/acc.wav'
p86
sg12
F234.19646258503403
sg13
I44100
sbg4
(g5
g6
NtRp87
(dp88
g9
I2
sg10
S'/home/ubuntu/DSSGAN/data/test/Zeno - Signs/drums.wav'
p89
sg12
F234.19646258503403
sg13
I44100
sbtp90
a(g4
(g5
g6
NtRp91
(dp92
g9
I2
sg10
S'/home/ubuntu/DSSGAN/data/test/PR - Oh No/mix.wav'
p93
sg12
F75.998911564625857
sg13
I44100
sbg4
(g5
g6
NtRp94
(dp95
g9
I2
sg10
S'/home/ubuntu/DSSGAN/data/test/PR - Oh No/acc.wav'
p96
sg12
F75.998911564625857
sg13
I44100
sbg4
(g5
g6
NtRp97
(dp98
g9
I2
sg10
S'/home/ubuntu/DSSGAN/data/test/PR - Oh No/drums.wav'
p99
sg12
F75.998911564625857
sg13
I44100
sbtp100
a(g4
(g5
g6
NtRp101
(dp102
g9
I2
sg10
S'/home/ubuntu/DSSGAN/data/test/The Sunshine Garcia Band - For I Am The Moon/mix.wav'
p103
sg12
F320.1102947845805
sg13
I44100
sbg4
(g5
g6
NtRp104
(dp105
g9
I2
sg10
S'/home/ubuntu/DSSGAN/data/test/The Sunshine Garcia Band - For I Am The Moon/acc.wav'
p106
sg12
F320.1102947845805
sg13
I44100
sbg4
(g5
g6
NtRp107
(dp108
g9
I2
sg10
S'/home/ubuntu/DSSGAN/data/test/The Sunshine Garcia Band - For I Am The Moon/drums.wav'
p109
sg12
F320.1102947845805
sg13
I44100
sbtp110
a(g4
(g5
g6
NtRp111
(dp112
g9
I2
sg10
S'/home/ubuntu/DSSGAN/data/test/Triviul feat. The Fiend - Widow/mix.wav'
p113
sg12
F234.91628117913831
sg13
I44100
sbg4
(g5
g6
NtRp114
(dp115
g9
I2
sg10
S'/home/ubuntu/DSSGAN/data/test/Triviul feat. The Fiend - Widow/acc.wav'
p116
sg12
F234.91628117913831
sg13
I44100
sbg4
(g5
g6
NtRp117
(dp118
g9
I2
sg10
S'/home/ubuntu/DSSGAN/data/test/Triviul feat. The Fiend - Widow/drums.wav'
p119
sg12
F234.91628117913831
sg13
I44100
sbtp120
a(g4
(g5
g6
NtRp121
(dp122
g9
I2
sg10
S'/home/ubuntu/DSSGAN/data/test/Lyndsey Ollard - Catching Up/mix.wav'
p123
sg12
F227.2304761904762
sg13
I44100
sbg4
(g5
g6
NtRp124
(dp125
g9
I2
sg10
S'/home/ubuntu/DSSGAN/data/test/Lyndsey Ollard - Catching Up/acc.wav'
p126
sg12
F227.2304761904762
sg13
I44100
sbg4
(g5
g6
NtRp127
(dp128
g9
I2
sg10
S'/home/ubuntu/DSSGAN/data/test/Lyndsey Ollard - Catching Up/drums.wav'
p129
sg12
F227.2304761904762
sg13
I44100
sbtp130
a(g4
(g5
g6
NtRp131
(dp132
g9
I2
sg10
S'/home/ubuntu/DSSGAN/data/test/Motor Tapes - Shore/mix.wav'
p133
sg12
F246.52625850340135
sg13
I44100
sbg4
(g5
g6
NtRp134
(dp135
g9
I2
sg10
S'/home/ubuntu/DSSGAN/data/test/Motor Tapes - Shore/acc.wav'
p136
sg12
F246.52625850340135
sg13
I44100
sbg4
(g5
g6
NtRp137
(dp138
g9
I2
sg10
S'/home/ubuntu/DSSGAN/data/test/Motor Tapes - Shore/drums.wav'
p139
sg12
F246.52625850340135
sg13
I44100
sbtp140
a(g4
(g5
g6
NtRp141
(dp142
g9
I2
sg10
S'/home/ubuntu/DSSGAN/data/test/NR_FeverLine/mix.wav'
p143
sg12
F200.78294784580498
sg13
I44100
sbg4
(g5
g6
NtRp144
(dp145
g9
I2
sg10
S'/home/ubuntu/DSSGAN/data/test/NR_FeverLine/acc.wav'
p146
sg12
F200.78294784580498
sg13
I44100
sbg4
(g5
g6
NtRp147
(dp148
g9
I2
sg10
S'/home/ubuntu/DSSGAN/data/test/NR_FeverLine/drums.wav'
p149
sg12
F200.78294784580498
sg13
I44100
sbtp150
a(g4
(g5
g6
NtRp151
(dp152
g9
I2
sg10
S'/home/ubuntu/DSSGAN/data/test/PB_Salute/mix.wav'
p153
sg12
F191.37886621315192
sg13
I44100
sbg4
(g5
g6
NtRp154
(dp155
g9
I2
sg10
S'/home/ubuntu/DSSGAN/data/test/PB_Salute/acc.wav'
p156
sg12
F191.37886621315192
sg13
I44100
sbg4
(g5
g6
NtRp157
(dp158
g9
I2
sg10
S'/home/ubuntu/DSSGAN/data/test/PB_Salute/drums.wav'
p159
sg12
F191.37886621315192
sg13
I44100
sbtp160
a(g4
(g5
g6
NtRp161
(dp162
g9
I2
sg10
S'/home/ubuntu/DSSGAN/data/test/Bobby Nobody - Stitch Up/mix.wav'
p163
sg12
F221.05396825396826
sg13
I44100
sbg4
(g5
g6
NtRp164
(dp165
g9
I2
sg10
S'/home/ubuntu/DSSGAN/data/test/Bobby Nobody - Stitch Up/acc.wav'
p166
sg12
F221.05396825396826
sg13
I44100
sbg4
(g5
g6
NtRp167
(dp168
g9
I2
sg10
S'/home/ubuntu/DSSGAN/data/test/Bobby Nobody - Stitch Up/drums.wav'
p169
sg12
F221.05396825396826
sg13
I44100
sbtp170
a(g4
(g5
g6
NtRp171
(dp172
g9
I2
sg10
S'/home/ubuntu/DSSGAN/data/test/Al James - Schoolboy Facination/mix.wav'
p173
sg12
F200.341768707483
sg13
I44100
sbg4
(g5
g6
NtRp174
(dp175
g9
I2
sg10
S'/home/ubuntu/DSSGAN/data/test/Al James - Schoolboy Facination/acc.wav'
p176
sg12
F200.341768707483
sg13
I44100
sbg4
(g5
g6
NtRp177
(dp178
g9
I2
sg10
S'/home/ubuntu/DSSGAN/data/test/Al James - Schoolboy Facination/drums.wav'
p179
sg12
F200.341768707483
sg13
I44100
sbtp180
a(g4
(g5
g6
NtRp181
(dp182
g9
I2
sg10
S'/home/ubuntu/DSSGAN/data/test/Mu - Too Bright/mix.wav'
p183
sg12
F271.97532879818596
sg13
I44100
sbg4
(g5
g6
NtRp184
(dp185
g9
I2
sg10
S'/home/ubuntu/DSSGAN/data/test/Mu - Too Bright/acc.wav'
p186
sg12
F271.97532879818596
sg13
I44100
sbg4
(g5
g6
NtRp187
(dp188
g9
I2
sg10
S'/home/ubuntu/DSSGAN/data/test/Mu - Too Bright/drums.wav'
p189
sg12
F271.97532879818596
sg13
I44100
sbtp190
a(g4
(g5
g6
NtRp191
(dp192
g9
I2
sg10
S'/home/ubuntu/DSSGAN/data/test/Moosmusic - Big Dummy Shake/mix.wav'
p193
sg12
F198.66993197278913
sg13
I44100
sbg4
(g5
g6
NtRp194
(dp195
g9
I2
sg10
S'/home/ubuntu/DSSGAN/data/test/Moosmusic - Big Dummy Shake/acc.wav'
p196
sg12
F198.66993197278913
sg13
I44100
sbg4
(g5
g6
NtRp197
(dp198
g9
I2
sg10
S'/home/ubuntu/DSSGAN/data/test/Moosmusic - Big Dummy Shake/drums.wav'
p199
sg12
F198.66993197278913
sg13
I44100
sbtp200
a(g4
(g5
g6
NtRp201
(dp202
g9
I2
sg10
S'/home/ubuntu/DSSGAN/data/test/Side Effects Project - Sing With Me/mix.wav'
p203
sg12
F243.48444444444445
sg13
I44100
sbg4
(g5
g6
NtRp204
(dp205
g9
I2
sg10
S'/home/ubuntu/DSSGAN/data/test/Side Effects Project - Sing With Me/acc.wav'
p206
sg12
F243.48444444444445
sg13
I44100
sbg4
(g5
g6
NtRp207
(dp208
g9
I2
sg10
S'/home/ubuntu/DSSGAN/data/test/Side Effects Project - Sing With Me/drums.wav'
p209
sg12
F243.48444444444445
sg13
I44100
sbtp210
a(g4
(g5
g6
NtRp211
(dp212
g9
I2
sg10
S"/home/ubuntu/DSSGAN/data/test/Juliet's Rescue - Heartbeats/mix.wav"
p213
sg12
F267.47065759637189
sg13
I44100
sbg4
(g5
g6
NtRp214
(dp215
g9
I2
sg10
S"/home/ubuntu/DSSGAN/data/test/Juliet's Rescue - Heartbeats/acc.wav"
p216
sg12
F267.47065759637189
sg13
I44100
sbg4
(g5
g6
NtRp217
(dp218
g9
I2
sg10
S"/home/ubuntu/DSSGAN/data/test/Juliet's Rescue - Heartbeats/drums.wav"
p219
sg12
F267.47065759637189
sg13
I44100
sbtp220
a(g4
(g5
g6
NtRp221
(dp222
g9
I2
sg10
S'/home/ubuntu/DSSGAN/data/test/CC_Melodisto/mix.wav'
p223
sg12
F228.62367346938777
sg13
I44100
sbg4
(g5
g6
NtRp224
(dp225
g9
I2
sg10
S'/home/ubuntu/DSSGAN/data/test/CC_Melodisto/acc.wav'
p226
sg12
F228.62367346938777
sg13
I44100
sbg4
(g5
g6
NtRp227
(dp228
g9
I2
sg10
S'/home/ubuntu/DSSGAN/data/test/CC_Melodisto/drums.wav'
p229
sg12
F228.62367346938777
sg13
I44100
sbtp230
a(g4
(g5
g6
NtRp231
(dp232
g9
I2
sg10
S'/home/ubuntu/DSSGAN/data/test/Skelpolu - Resurrection/mix.wav'
p233
sg12
F395.48226757369616
sg13
I44100
sbg4
(g5
g6
NtRp234
(dp235
g9
I2
sg10
S'/home/ubuntu/DSSGAN/data/test/Skelpolu - Resurrection/acc.wav'
p236
sg12
F395.48226757369616
sg13
I44100
sbg4
(g5
g6
NtRp237
(dp238
g9
I2
sg10
S'/home/ubuntu/DSSGAN/data/test/Skelpolu - Resurrection/drums.wav'
p239
sg12
F395.48226757369616
sg13
I44100
sbtp240
a(g4
(g5
g6
NtRp241
(dp242
g9
I1
sg10
S'/home/ubuntu/DSSGAN/data/test/7/mix.wav'
p243
sg12
F194.28571428571428
sg13
I44100
sbg4
(g5
g6
NtRp244
(dp245
g9
I1
sg10
S'/home/ubuntu/DSSGAN/data/test/7/acc.wav'
p246
sg12
F194.28571428571428
sg13
I44100
sbg4
(g5
g6
NtRp247
(dp248
g9
I1
sg10
S'/home/ubuntu/DSSGAN/data/test/7/drums.wav'
p249
sg12
F194.28571428571428
sg13
I44100
sbtp250
a(g4
(g5
g6
NtRp251
(dp252
g9
I2
sg10
S"/home/ubuntu/DSSGAN/data/test/Little Chicago's Finest - My Own/mix.wav"
p253
sg12
F281.42585034013604
sg13
I44100
sbg4
(g5
g6
NtRp254
(dp255
g9
I2
sg10
S"/home/ubuntu/DSSGAN/data/test/Little Chicago's Finest - My Own/acc.wav"
p256
sg12
F281.42585034013604
sg13
I44100
sbg4
(g5
g6
NtRp257
(dp258
g9
I2
sg10
S"/home/ubuntu/DSSGAN/data/test/Little Chicago's Finest - My Own/drums.wav"
p259
sg12
F281.42585034013604
sg13
I44100
sbtp260
a(g4
(g5
g6
NtRp261
(dp262
g9
I2
sg10
S'/home/ubuntu/DSSGAN/data/test/Signe Jakobsen - What Have You Done To Me/mix.wav'
p263
sg12
F177.21469387755101
sg13
I44100
sbg4
(g5
g6
NtRp264
(dp265
g9
I2
sg10
S'/home/ubuntu/DSSGAN/data/test/Signe Jakobsen - What Have You Done To Me/acc.wav'
p266
sg12
F177.21469387755101
sg13
I44100
sbg4
(g5
g6
NtRp267
(dp268
g9
I2
sg10
S'/home/ubuntu/DSSGAN/data/test/Signe Jakobsen - What Have You Done To Me/drums.wav'
p269
sg12
F177.21469387755101
sg13
I44100
sbtp270
a(g4
(g5
g6
NtRp271
(dp272
g9
I2
sg10
S'/home/ubuntu/DSSGAN/data/test/M.E.R.C. Music - Knockout/mix.wav'
p273
sg12
F269.81587301587302
sg13
I44100
sbg4
(g5
g6
NtRp274
(dp275
g9
I2
sg10
S'/home/ubuntu/DSSGAN/data/test/M.E.R.C. Music - Knockout/acc.wav'
p276
sg12
F269.81587301587302
sg13
I44100
sbg4
(g5
g6
NtRp277
(dp278
g9
I2
sg10
S'/home/ubuntu/DSSGAN/data/test/M.E.R.C. Music - Knockout/drums.wav'
p279
sg12
F269.81587301587302
sg13
I44100
sbtp280
a(g4
(g5
g6
NtRp281
(dp282
g9
I2
sg10
S'/home/ubuntu/DSSGAN/data/test/Forkupines - Semantics/mix.wav'
p283
sg12
F273.39174603174604
sg13
I44100
sbg4
(g5
g6
NtRp284
(dp285
g9
I2
sg10
S'/home/ubuntu/DSSGAN/data/test/Forkupines - Semantics/acc.wav'
p286
sg12
F273.39174603174604
sg13
I44100
sbg4
(g5
g6
NtRp287
(dp288
g9
I2
sg10
S'/home/ubuntu/DSSGAN/data/test/Forkupines - Semantics/drums.wav'
p289
sg12
F273.39174603174604
sg13
I44100
sbtp290
a(g4
(g5
g6
NtRp291
(dp292
g9
I2
sg10
S'/home/ubuntu/DSSGAN/data/test/The Mountaineering Club - Mallory/mix.wav'
p293
sg12
F244.27392290249432
sg13
I44100
sbg4
(g5
g6
NtRp294
(dp295
g9
I2
sg10
S'/home/ubuntu/DSSGAN/data/test/The Mountaineering Club - Mallory/acc.wav'
p296
sg12
F244.27392290249432
sg13
I44100
sbg4
(g5
g6
NtRp297
(dp298
g9
I2
sg10
S'/home/ubuntu/DSSGAN/data/test/The Mountaineering Club - Mallory/drums.wav'
p299
sg12
F244.27392290249432
sg13
I44100
sbtp300
a(g4
(g5
g6
NtRp301
(dp302
g9
I2
sg10
S'/home/ubuntu/DSSGAN/data/test/Buitraker - Revo X/mix.wav'
p303
sg12
F275.64408163265307
sg13
I44100
sbg4
(g5
g6
NtRp304
(dp305
g9
I2
sg10
S'/home/ubuntu/DSSGAN/data/test/Buitraker - Revo X/acc.wav'
p306
sg12
F275.64408163265307
sg13
I44100
sbg4
(g5
g6
NtRp307
(dp308
g9
I2
sg10
S'/home/ubuntu/DSSGAN/data/test/Buitraker - Revo X/drums.wav'
p309
sg12
F275.64408163265307
sg13
I44100
sbtp310
a(g4
(g5
g6
NtRp311
(dp312
g9
I2
sg10
S'/home/ubuntu/DSSGAN/data/test/Enda Reilly - Cur An Long Ag Seol/mix.wav'
p313
sg12
F186.8045351473923
sg13
I44100
sbg4
(g5
g6
NtRp314
(dp315
g9
I2
sg10
S'/home/ubuntu/DSSGAN/data/test/Enda Reilly - Cur An Long Ag Seol/acc.wav'
p316
sg12
F186.8045351473923
sg13
I44100
sbg4
(g5
g6
NtRp317
(dp318
g9
I2
sg10
S'/home/ubuntu/DSSGAN/data/test/Enda Reilly - Cur An Long Ag Seol/drums.wav'
p319
sg12
F186.8045351473923
sg13
I44100
sbtp320
a(g4
(g5
g6
NtRp321
(dp322
g9
I2
sg10
S'/home/ubuntu/DSSGAN/data/test/LD_OldMoney/mix.wav'
p323
sg12
F167.88027210884354
sg13
I44100
sbg4
(g5
g6
NtRp324
(dp325
g9
I2
sg10
S'/home/ubuntu/DSSGAN/data/test/LD_OldMoney/acc.wav'
p326
sg12
F167.88027210884354
sg13
I44100
sbg4
(g5
g6
NtRp327
(dp328
g9
I2
sg10
S'/home/ubuntu/DSSGAN/data/test/LD_OldMoney/drums.wav'
p329
sg12
F167.88027210884354
sg13
I44100
sbtp330
a(g4
(g5
g6
NtRp331
(dp332
g9
I2
sg10
S'/home/ubuntu/DSSGAN/data/test/The Long Wait - Dark Horses/mix.wav'
p333
sg12
F305.52816326530615
sg13
I44100
sbg4
(g5
g6
NtRp334
(dp335
g9
I2
sg10
S'/home/ubuntu/DSSGAN/data/test/The Long Wait - Dark Horses/acc.wav'
p336
sg12
F305.52816326530615
sg13
I44100
sbg4
(g5
g6
NtRp337
(dp338
g9
I2
sg10
S'/home/ubuntu/DSSGAN/data/test/The Long Wait - Dark Horses/drums.wav'
p339
sg12
F305.52816326530615
sg13
I44100
sbtp340
a(g4
(g5
g6
NtRp341
(dp342
g9
I2
sg10
S'/home/ubuntu/DSSGAN/data/test/Sambasevam Shanmugam - Kaathaadi/mix.wav'
p343
sg12
F317.69541950113381
sg13
I44100
sbg4
(g5
g6
NtRp344
(dp345
g9
I2
sg10
S'/home/ubuntu/DSSGAN/data/test/Sambasevam Shanmugam - Kaathaadi/acc.wav'
p346
sg12
F317.69541950113381
sg13
I44100
sbg4
(g5
g6
NtRp347
(dp348
g9
I2
sg10
S'/home/ubuntu/DSSGAN/data/test/Sambasevam Shanmugam - Kaathaadi/drums.wav'
p349
sg12
F317.69541950113381
sg13
I44100
sbtp350
a(g4
(g5
g6
NtRp351
(dp352
g9
I2
sg10
S'/home/ubuntu/DSSGAN/data/test/We Fell From The Sky - Not You/mix.wav'
p353
sg12
F207.70249433106576
sg13
I44100
sbg4
(g5
g6
NtRp354
(dp355
g9
I2
sg10
S'/home/ubuntu/DSSGAN/data/test/We Fell From The Sky - Not You/acc.wav'
p356
sg12
F207.70249433106576
sg13
I44100
sbg4
(g5
g6
NtRp357
(dp358
g9
I2
sg10
S'/home/ubuntu/DSSGAN/data/test/We Fell From The Sky - Not You/drums.wav'
p359
sg12
F207.70249433106576
sg13
I44100
sbtp360
a(g4
(g5
g6
NtRp361
(dp362
g9
I2
sg10
S'/home/ubuntu/DSSGAN/data/test/SF_RadioDubMix/mix.wav'
p363
sg12
F190.40362811791383
sg13
I44100
sbg4
(g5
g6
NtRp364
(dp365
g9
I2
sg10
S'/home/ubuntu/DSSGAN/data/test/SF_RadioDubMix/acc.wav'
p366
sg12
F190.40362811791383
sg13
I44100
sbg4
(g5
g6
NtRp367
(dp368
g9
I2
sg10
S'/home/ubuntu/DSSGAN/data/test/SF_RadioDubMix/drums.wav'
p369
sg12
F190.40362811791383
sg13
I44100
sbtp370
a(g4
(g5
g6
NtRp371
(dp372
g9
I2
sg10
S'/home/ubuntu/DSSGAN/data/test/AM Contra - Heart Peripheral/mix.wav'
p373
sg12
F209.90839002267575
sg13
I44100
sbg4
(g5
g6
NtRp374
(dp375
g9
I2
sg10
S'/home/ubuntu/DSSGAN/data/test/AM Contra - Heart Peripheral/acc.wav'
p376
sg12
F209.90839002267575
sg13
I44100
sbg4
(g5
g6
NtRp377
(dp378
g9
I2
sg10
S'/home/ubuntu/DSSGAN/data/test/AM Contra - Heart Peripheral/drums.wav'
p379
sg12
F209.90839002267575
sg13
I44100
sbtp380
a(g4
(g5
g6
NtRp381
(dp382
g9
I2
sg10
S'/home/ubuntu/DSSGAN/data/test/Punkdisco - Oral Hygiene/mix.wav'
p383
sg12
F221.40226757369615
sg13
I44100
sbg4
(g5
g6
NtRp384
(dp385
g9
I2
sg10
S'/home/ubuntu/DSSGAN/data/test/Punkdisco - Oral Hygiene/acc.wav'
p386
sg12
F221.40226757369615
sg13
I44100
sbg4
(g5
g6
NtRp387
(dp388
g9
I2
sg10
S'/home/ubuntu/DSSGAN/data/test/Punkdisco - Oral Hygiene/drums.wav'
p389
sg12
F221.40226757369615
sg13
I44100
sbtp390
a(g4
(g5
g6
NtRp391
(dp392
g9
I2
sg10
S'/home/ubuntu/DSSGAN/data/test/Georgia Wonder - Siren/mix.wav'
p393
sg12
F430.19609977324262
sg13
I44100
sbg4
(g5
g6
NtRp394
(dp395
g9
I2
sg10
S'/home/ubuntu/DSSGAN/data/test/Georgia Wonder - Siren/acc.wav'
p396
sg12
F430.19609977324262
sg13
I44100
sbg4
(g5
g6
NtRp397
(dp398
g9
I2
sg10
S'/home/ubuntu/DSSGAN/data/test/Georgia Wonder - Siren/drums.wav'
p399
sg12
F430.19609977324262
sg13
I44100
sbtp400
a(g4
(g5
g6
NtRp401
(dp402
g9
I2
sg10
S'/home/ubuntu/DSSGAN/data/test/The Doppler Shift - Atrophy/mix.wav'
p403
sg12
F331.25587301587302
sg13
I44100
sbg4
(g5
g6
NtRp404
(dp405
g9
I2
sg10
S'/home/ubuntu/DSSGAN/data/test/The Doppler Shift - Atrophy/acc.wav'
p406
sg12
F331.25587301587302
sg13
I44100
sbg4
(g5
g6
NtRp407
(dp408
g9
I2
sg10
S'/home/ubuntu/DSSGAN/data/test/The Doppler Shift - Atrophy/drums.wav'
p409
sg12
F331.25587301587302
sg13
I44100
sbtp410
a(g4
(g5
g6
NtRp411
(dp412
g9
I2
sg10
S'/home/ubuntu/DSSGAN/data/test/HR_WaterSigns/mix.wav'
p413
sg12
F211.25514739229024
sg13
I44100
sbg4
(g5
g6
NtRp414
(dp415
g9
I2
sg10
S'/home/ubuntu/DSSGAN/data/test/HR_WaterSigns/acc.wav'
p416
sg12
F211.25514739229024
sg13
I44100
sbg4
(g5
g6
NtRp417
(dp418
g9
I2
sg10
S'/home/ubuntu/DSSGAN/data/test/HR_WaterSigns/drums.wav'
p419
sg12
F211.25514739229024
sg13
I44100
sbtp420
a(g4
(g5
g6
NtRp421
(dp422
g9
I2
sg10
S'/home/ubuntu/DSSGAN/data/test/DS_JellyBelly/mix.wav'
p423
sg12
F219.498231292517
sg13
I44100
sbg4
(g5
g6
NtRp424
(dp425
g9
I2
sg10
S'/home/ubuntu/DSSGAN/data/test/DS_JellyBelly/acc.wav'
p426
sg12
F219.498231292517
sg13
I44100
sbg4
(g5
g6
NtRp427
(dp428
g9
I2
sg10
S'/home/ubuntu/DSSGAN/data/test/DS_JellyBelly/drums.wav'
p429
sg12
F219.498231292517
sg13
I44100
sbtp430
a(g4
(g5
g6
NtRp431
(dp432
g9
I2
sg10
S'/home/ubuntu/DSSGAN/data/test/James Elder & Mark M Thompson - The English Actor/mix.wav'
p433
sg12
F205.28761904761905
sg13
I44100
sbg4
(g5
g6
NtRp434
(dp435
g9
I2
sg10
S'/home/ubuntu/DSSGAN/data/test/James Elder & Mark M Thompson - The English Actor/acc.wav'
p436
sg12
F205.28761904761905
sg13
I44100
sbg4
(g5
g6
NtRp437
(dp438
g9
I2
sg10
S'/home/ubuntu/DSSGAN/data/test/James Elder & Mark M Thompson - The English Actor/drums.wav'
p439
sg12
F205.28761904761905
sg13
I44100
sbtp440
a(g4
(g5
g6
NtRp441
(dp442
g9
I2
sg10
S'/home/ubuntu/DSSGAN/data/test/Speak Softly - Like Horses/mix.wav'
p443
sg12
F312.47092970521544
sg13
I44100
sbg4
(g5
g6
NtRp444
(dp445
g9
I2
sg10
S'/home/ubuntu/DSSGAN/data/test/Speak Softly - Like Horses/acc.wav'
p446
sg12
F312.47092970521544
sg13
I44100
sbg4
(g5
g6
NtRp447
(dp448
g9
I2
sg10
S'/home/ubuntu/DSSGAN/data/test/Speak Softly - Like Horses/drums.wav'
p449
sg12
F312.47092970521544
sg13
I44100
sbtp450
a(g4
(g5
g6
NtRp451
(dp452
g9
I2
sg10
S'/home/ubuntu/DSSGAN/data/test/Carlos Gonzalez - A Place For Us/mix.wav'
p453
sg12
F250.03247165532881
sg13
I44100
sbg4
(g5
g6
NtRp454
(dp455
g9
I2
sg10
S'/home/ubuntu/DSSGAN/data/test/Carlos Gonzalez - A Place For Us/acc.wav'
p456
sg12
F250.03247165532881
sg13
I44100
sbg4
(g5
g6
NtRp457
(dp458
g9
I2
sg10
S'/home/ubuntu/DSSGAN/data/test/Carlos Gonzalez - A Place For Us/drums.wav'
p459
sg12
F250.03247165532881
sg13
I44100
sbtp460
a(g4
(g5
g6
NtRp461
(dp462
g9
I2
sg10
S"/home/ubuntu/DSSGAN/data/test/Ben Carrigan - We'll Talk About It All Tonight/mix.wav"
p463
sg12
F254.72290249433107
sg13
I44100
sbg4
(g5
g6
NtRp464
(dp465
g9
I2
sg10
S"/home/ubuntu/DSSGAN/data/test/Ben Carrigan - We'll Talk About It All Tonight/acc.wav"
p466
sg12
F254.72290249433107
sg13
I44100
sbg4
(g5
g6
NtRp467
(dp468
g9
I2
sg10
S"/home/ubuntu/DSSGAN/data/test/Ben Carrigan - We'll Talk About It All Tonight/drums.wav"
p469
sg12
F254.72290249433107
sg13
I44100
sbtp470
a(g4
(g5
g6
NtRp471
(dp472
g9
I1
sg10
S'/home/ubuntu/DSSGAN/data/test/2/mix.wav'
p473
sg12
F738.46258503401361
sg13
I44100
sbg4
(g5
g6
NtRp474
(dp475
g9
I1
sg10
S'/home/ubuntu/DSSGAN/data/test/2/acc.wav'
p476
sg12
F738.46258503401361
sg13
I44100
sbg4
(g5
g6
NtRp477
(dp478
g9
I1
sg10
S'/home/ubuntu/DSSGAN/data/test/2/drums.wav'
p479
sg12
F738.46258503401361
sg13
I44100
sbtp480
a(g4
(g5
g6
NtRp481
(dp482
g9
I2
sg10
S'/home/ubuntu/DSSGAN/data/test/Nerve 9 - Pray For The Rain/mix.wav'
p483
sg12
F343.51600907029479
sg13
I44100
sbg4
(g5
g6
NtRp484
(dp485
g9
I2
sg10
S'/home/ubuntu/DSSGAN/data/test/Nerve 9 - Pray For The Rain/acc.wav'
p486
sg12
F343.51600907029479
sg13
I44100
sbg4
(g5
g6
NtRp487
(dp488
g9
I2
sg10
S'/home/ubuntu/DSSGAN/data/test/Nerve 9 - Pray For The Rain/drums.wav'
p489
sg12
F343.51600907029479
sg13
I44100
sbtp490
a(g4
(g5
g6
NtRp491
(dp492
g9
I2
sg10
S'/home/ubuntu/DSSGAN/data/test/Girls Under Glass - We Feel Alright/mix.wav'
p493
sg12
F317.09170068027208
sg13
I44100
sbg4
(g5
g6
NtRp494
(dp495
g9
I2
sg10
S'/home/ubuntu/DSSGAN/data/test/Girls Under Glass - We Feel Alright/acc.wav'
p496
sg12
F317.09170068027208
sg13
I44100
sbg4
(g5
g6
NtRp497
(dp498
g9
I2
sg10
S'/home/ubuntu/DSSGAN/data/test/Girls Under Glass - We Feel Alright/drums.wav'
p499
sg12
F317.09170068027208
sg13
I44100
sbtp500
a(g4
(g5
g6
NtRp501
(dp502
g9
I2
sg10
S'/home/ubuntu/DSSGAN/data/test/Detsky Sad - Walkie Talkie/mix.wav'
p503
sg12
F190.28752834467122
sg13
I44100
sbg4
(g5
g6
NtRp504
(dp505
g9
I2
sg10
S'/home/ubuntu/DSSGAN/data/test/Detsky Sad - Walkie Talkie/acc.wav'
p506
sg12
F190.28752834467122
sg13
I44100
sbg4
(g5
g6
NtRp507
(dp508
g9
I2
sg10
S'/home/ubuntu/DSSGAN/data/test/Detsky Sad - Walkie Talkie/drums.wav'
p509
sg12
F190.28752834467122
sg13
I44100
sbtp510
asS'train_sup'
p511
(lp512
(g4
(g5
g6
NtRp513
(dp514
g9
I2
sg10
S'/home/ubuntu/DSSGAN/data/train/Atlantis Bound - It Was My Fault For Waiting/mix.wav'
p515
sg12
F268.05115646258503
sg13
I44100
sbg4
(g5
g6
NtRp516
(dp517
g9
I2
sg10
S'/home/ubuntu/DSSGAN/data/train/Atlantis Bound - It Was My Fault For Waiting/acc.wav'
p518
sg12
F268.05115646258503
sg13
I44100
sbg4
(g5
g6
NtRp519
(dp520
g9
I2
sg10
S'/home/ubuntu/DSSGAN/data/train/Atlantis Bound - It Was My Fault For Waiting/drums.wav'
p521
sg12
F268.05115646258503
sg13
I44100
sbtp522
a(g4
(g5
g6
NtRp523
(dp524
g9
I2
sg10
S'/home/ubuntu/DSSGAN/data/train/The Scarlet Brand - Les Fleurs Du Mal/mix.wav'
p525
sg12
F303.43836734693878
sg13
I44100
sbg4
(g5
g6
NtRp526
(dp527
g9
I2
sg10
S'/home/ubuntu/DSSGAN/data/train/The Scarlet Brand - Les Fleurs Du Mal/acc.wav'
p528
sg12
F303.43836734693878
sg13
I44100
sbg4
(g5
g6
NtRp529
(dp530
g9
I2
sg10
S'/home/ubuntu/DSSGAN/data/train/The Scarlet Brand - Les Fleurs Du Mal/drums.wav'
p531
sg12
F303.43836734693878
sg13
I44100
sbtp532
a(g4
(g5
g6
NtRp533
(dp534
g9
I1
sg10
S'/home/ubuntu/DSSGAN/data/train/8/mix.wav'
p535
sg12
F146.28571428571428
sg13
I44100
sbg4
(g5
g6
NtRp536
(dp537
g9
I1
sg10
S'/home/ubuntu/DSSGAN/data/train/8/acc.wav'
p538
sg12
F146.28571428571428
sg13
I44100
sbg4
(g5
g6
NtRp539
(dp540
g9
I1
sg10
S'/home/ubuntu/DSSGAN/data/train/8/drums.wav'
p541
sg12
F146.28571428571428
sg13
I44100
sbtp542
a(g4
(g5
g6
NtRp543
(dp544
g9
I1
sg10
S'/home/ubuntu/DSSGAN/data/train/4/mix.wav'
p545
sg12
F240
sg13
I44100
sbg4
(g5
g6
NtRp546
(dp547
g9
I1
sg10
S'/home/ubuntu/DSSGAN/data/train/4/acc.wav'
p548
sg12
F240
sg13
I44100
sbg4
(g5
g6
NtRp549
(dp550
g9
I1
sg10
S'/home/ubuntu/DSSGAN/data/train/4/drums.wav'
p551
sg12
F240
sg13
I44100
sbtp552
a(g4
(g5
g6
NtRp553
(dp554
g9
I2
sg10
S'/home/ubuntu/DSSGAN/data/train/Music Delta - Punk/mix.wav'
p555
sg12
F28.583764172335602
sg13
I44100
sbg4
(g5
g6
NtRp556
(dp557
g9
I2
sg10
S'/home/ubuntu/DSSGAN/data/train/Music Delta - Punk/acc.wav'
p558
sg12
F28.583764172335602
sg13
I44100
sbg4
(g5
g6
NtRp559
(dp560
g9
I2
sg10
S'/home/ubuntu/DSSGAN/data/train/Music Delta - Punk/drums.wav'
p561
sg12
F28.583764172335602
sg13
I44100
sbtp562
a(g4
(g5
g6
NtRp563
(dp564
g9
I2
sg10
S'/home/ubuntu/DSSGAN/data/train/VH_SpaceBlapz/mix.wav'
p565
sg12
F112.40780045351474
sg13
I44100
sbg4
(g5
g6
NtRp566
(dp567
g9
I2
sg10
S'/home/ubuntu/DSSGAN/data/train/VH_SpaceBlapz/acc.wav'
p568
sg12
F112.40780045351474
sg13
I44100
sbg4
(g5
g6
NtRp569
(dp570
g9
I2
sg10
S'/home/ubuntu/DSSGAN/data/train/VH_SpaceBlapz/drums.wav'
p571
sg12
F112.40780045351474
sg13
I44100
sbtp572
a(g4
(g5
g6
NtRp573
(dp574
g9
I2
sg10
S'/home/ubuntu/DSSGAN/data/train/Angela Thomas Wade - Milk Cow Blues/mix.wav'
p575
sg12
F210.90684807256235
sg13
I44100
sbg4
(g5
g6
NtRp576
(dp577
g9
I2
sg10
S'/home/ubuntu/DSSGAN/data/train/Angela Thomas Wade - Milk Cow Blues/acc.wav'
p578
sg12
F210.90684807256235
sg13
I44100
sbg4
(g5
g6
NtRp579
(dp580
g9
I2
sg10
S'/home/ubuntu/DSSGAN/data/train/Angela Thomas Wade - Milk Cow Blues/drums.wav'
p581
sg12
F210.90684807256235
sg13
I44100
sbtp582
a(g4
(g5
g6
NtRp583
(dp584
g9
I2
sg10
S'/home/ubuntu/DSSGAN/data/train/Clara Berry And Wooldog - Air Traffic/mix.wav'
p585
sg12
F173.26730158730157
sg13
I44100
sbg4
(g5
g6
NtRp586
(dp587
g9
I2
sg10
S'/home/ubuntu/DSSGAN/data/train/Clara Berry And Wooldog - Air Traffic/acc.wav'
p588
sg12
F173.26730158730157
sg13
I44100
sbg4
(g5
g6
NtRp589
(dp590
g9
I2
sg10
S'/home/ubuntu/DSSGAN/data/train/Clara Berry And Wooldog - Air Traffic/drums.wav'
p591
sg12
F173.26730158730157
sg13
I44100
sbtp592
a(g4
(g5
g6
NtRp593
(dp594
g9
I2
sg10
S'/home/ubuntu/DSSGAN/data/train/Music Delta - Reggae/mix.wav'
p595
sg12
F17.2756462585034
sg13
I44100
sbg4
(g5
g6
NtRp596
(dp597
g9
I2
sg10
S'/home/ubuntu/DSSGAN/data/train/Music Delta - Reggae/acc.wav'
p598
sg12
F17.2756462585034
sg13
I44100
sbg4
(g5
g6
NtRp599
(dp600
g9
I2
sg10
S'/home/ubuntu/DSSGAN/data/train/Music Delta - Reggae/drums.wav'
p601
sg12
F17.2756462585034
sg13
I44100
sbtp602
a(g4
(g5
g6
NtRp603
(dp604
g9
I2
sg10
S"/home/ubuntu/DSSGAN/data/train/The Wrong'Uns - Rothko/mix.wav"
p605
sg12
F202.15292517006802
sg13
I44100
sbg4
(g5
g6
NtRp606
(dp607
g9
I2
sg10
S"/home/ubuntu/DSSGAN/data/train/The Wrong'Uns - Rothko/acc.wav"
p608
sg12
F202.15292517006802
sg13
I44100
sbg4
(g5
g6
NtRp609
(dp610
g9
I2
sg10
S"/home/ubuntu/DSSGAN/data/train/The Wrong'Uns - Rothko/drums.wav"
p611
sg12
F202.15292517006802
sg13
I44100
sbtp612
a(g4
(g5
g6
NtRp613
(dp614
g9
I2
sg10
S'/home/ubuntu/DSSGAN/data/train/AFL_ShadowGaze/mix.wav'
p615
sg12
F170.29514739229026
sg13
I44100
sbg4
(g5
g6
NtRp616
(dp617
g9
I2
sg10
S'/home/ubuntu/DSSGAN/data/train/AFL_ShadowGaze/acc.wav'
p618
sg12
F170.29514739229026
sg13
I44100
sbg4
(g5
g6
NtRp619
(dp620
g9
I2
sg10
S'/home/ubuntu/DSSGAN/data/train/AFL_ShadowGaze/drums.wav'
p621
sg12
F170.29514739229026
sg13
I44100
sbtp622
a(g4
(g5
g6
NtRp623
(dp624
g9
I2
sg10
S'/home/ubuntu/DSSGAN/data/train/TS_SupremeDialogue/mix.wav'
p625
sg12
F144.61387755102041
sg13
I44100
sbg4
(g5
g6
NtRp626
(dp627
g9
I2
sg10
S'/home/ubuntu/DSSGAN/data/train/TS_SupremeDialogue/acc.wav'
p628
sg12
F144.61387755102041
sg13
I44100
sbg4
(g5
g6
NtRp629
(dp630
g9
I2
sg10
S'/home/ubuntu/DSSGAN/data/train/TS_SupremeDialogue/drums.wav'
p631
sg12
F144.61387755102041
sg13
I44100
sbtp632
a(g4
(g5
g6
NtRp633
(dp634
g9
I2
sg10
S'/home/ubuntu/DSSGAN/data/train/Port St Willow - Stay Even/mix.wav'
p635
sg12
F316.83628117913833
sg13
I44100
sbg4
(g5
g6
NtRp636
(dp637
g9
I2
sg10
S'/home/ubuntu/DSSGAN/data/train/Port St Willow - Stay Even/acc.wav'
p638
sg12
F316.83628117913833
sg13
I44100
sbg4
(g5
g6
NtRp639
(dp640
g9
I2
sg10
S'/home/ubuntu/DSSGAN/data/train/Port St Willow - Stay Even/drums.wav'
p641
sg12
F316.83628117913833
sg13
I44100
sbtp642
a(g4
(g5
g6
NtRp643
(dp644
g9
I2
sg10
S'/home/ubuntu/DSSGAN/data/train/North To Alaska - All The Same/mix.wav'
p645
sg12
F247.96589569160997
sg13
I44100
sbg4
(g5
g6
NtRp646
(dp647
g9
I2
sg10
S'/home/ubuntu/DSSGAN/data/train/North To Alaska - All The Same/acc.wav'
p648
sg12
F247.96589569160997
sg13
I44100
sbg4
(g5
g6
NtRp649
(dp650
g9
I2
sg10
S'/home/ubuntu/DSSGAN/data/train/North To Alaska - All The Same/drums.wav'
p651
sg12
F247.96589569160997
sg13
I44100
sbtp652
a(g4
(g5
g6
NtRp653
(dp654
g9
I2
sg10
S'/home/ubuntu/DSSGAN/data/train/PR_HappyDaze/mix.wav'
p655
sg12
F162.70222222222222
sg13
I44100
sbg4
(g5
g6
NtRp656
(dp657
g9
I2
sg10
S'/home/ubuntu/DSSGAN/data/train/PR_HappyDaze/acc.wav'
p658
sg12
F162.70222222222222
sg13
I44100
sbg4
(g5
g6
NtRp659
(dp660
g9
I2
sg10
S'/home/ubuntu/DSSGAN/data/train/PR_HappyDaze/drums.wav'
p661
sg12
F162.70222222222222
sg13
I44100
sbtp662
a(g4
(g5
g6
NtRp663
(dp664
g9
I2
sg10
S'/home/ubuntu/DSSGAN/data/train/Swinging Steaks - Lost My Way/mix.wav'
p665
sg12
F309.96317460317459
sg13
I44100
sbg4
(g5
g6
NtRp666
(dp667
g9
I2
sg10
S'/home/ubuntu/DSSGAN/data/train/Swinging Steaks - Lost My Way/acc.wav'
p668
sg12
F309.96317460317459
sg13
I44100
sbg4
(g5
g6
NtRp669
(dp670
g9
I2
sg10
S'/home/ubuntu/DSSGAN/data/train/Swinging Steaks - Lost My Way/drums.wav'
p671
sg12
F309.96317460317459
sg13
I44100
sbtp672
a(g4
(g5
g6
NtRp673
(dp674
g9
I2
sg10
S'/home/ubuntu/DSSGAN/data/train/Auctioneer - Our Future Faces/mix.wav'
p675
sg12
F207.70249433106576
sg13
I44100
sbg4
(g5
g6
NtRp676
(dp677
g9
I2
sg10
S'/home/ubuntu/DSSGAN/data/train/Auctioneer - Our Future Faces/acc.wav'
p678
sg12
F207.70249433106576
sg13
I44100
sbg4
(g5
g6
NtRp679
(dp680
g9
I2
sg10
S'/home/ubuntu/DSSGAN/data/train/Auctioneer - Our Future Faces/drums.wav'
p681
sg12
F207.70249433106576
sg13
I44100
sbtp682
a(g4
(g5
g6
NtRp683
(dp684
g9
I2
sg10
S'/home/ubuntu/DSSGAN/data/train/Hollow Ground - Left Blind/mix.wav'
p685
sg12
F159.10312925170069
sg13
I44100
sbg4
(g5
g6
NtRp686
(dp687
g9
I2
sg10
S'/home/ubuntu/DSSGAN/data/train/Hollow Ground - Left Blind/acc.wav'
p688
sg12
F159.10312925170069
sg13
I44100
sbg4
(g5
g6
NtRp689
(dp690
g9
I2
sg10
S'/home/ubuntu/DSSGAN/data/train/Hollow Ground - Left Blind/drums.wav'
p691
sg12
F159.10312925170069
sg13
I44100
sbtp692
a(g4
(g5
g6
NtRp693
(dp694
g9
I1
sg10
S'/home/ubuntu/DSSGAN/data/train/11/mix.wav'
p695
sg12
F302.22222222222223
sg13
I44100
sbg4
(g5
g6
NtRp696
(dp697
g9
I1
sg10
S'/home/ubuntu/DSSGAN/data/train/11/acc.wav'
p698
sg12
F302.22222222222223
sg13
I44100
sbg4
(g5
g6
NtRp699
(dp700
g9
I1
sg10
S'/home/ubuntu/DSSGAN/data/train/11/drums.wav'
p701
sg12
F302.22222222222223
sg13
I44100
sbtp702
a(g4
(g5
g6
NtRp703
(dp704
g9
I2
sg10
S'/home/ubuntu/DSSGAN/data/train/Dark Ride - Burning Bridges/mix.wav'
p705
sg12
F232.66394557823131
sg13
I44100
sbg4
(g5
g6
NtRp706
(dp707
g9
I2
sg10
S'/home/ubuntu/DSSGAN/data/train/Dark Ride - Burning Bridges/acc.wav'
p708
sg12
F232.66394557823131
sg13
I44100
sbg4
(g5
g6
NtRp709
(dp710
g9
I2
sg10
S'/home/ubuntu/DSSGAN/data/train/Dark Ride - Burning Bridges/drums.wav'
p711
sg12
F232.66394557823131
sg13
I44100
sbtp712
a(g4
(g5
g6
NtRp713
(dp714
g9
I2
sg10
S'/home/ubuntu/DSSGAN/data/train/The Long Wait - Back Home To Blue/mix.wav'
p715
sg12
F260.45823129251698
sg13
I44100
sbg4
(g5
g6
NtRp716
(dp717
g9
I2
sg10
S'/home/ubuntu/DSSGAN/data/train/The Long Wait - Back Home To Blue/acc.wav'
p718
sg12
F260.45823129251698
sg13
I44100
sbg4
(g5
g6
NtRp719
(dp720
g9
I2
sg10
S'/home/ubuntu/DSSGAN/data/train/The Long Wait - Back Home To Blue/drums.wav'
p721
sg12
F260.45823129251698
sg13
I44100
sbtp722
a(g4
(g5
g6
NtRp723
(dp724
g9
I2
sg10
S'/home/ubuntu/DSSGAN/data/train/Music Delta - Rockabilly/mix.wav'
p725
sg12
F25.75092970521542
sg13
I44100
sbg4
(g5
g6
NtRp726
(dp727
g9
I2
sg10
S'/home/ubuntu/DSSGAN/data/train/Music Delta - Rockabilly/acc.wav'
p728
sg12
F25.75092970521542
sg13
I44100
sbg4
(g5
g6
NtRp729
(dp730
g9
I2
sg10
S'/home/ubuntu/DSSGAN/data/train/Music Delta - Rockabilly/drums.wav'
p731
sg12
F25.75092970521542
sg13
I44100
sbtp732
a(g4
(g5
g6
NtRp733
(dp734
g9
I2
sg10
S'/home/ubuntu/DSSGAN/data/train/Lushlife - Toynbee Suite/mix.wav'
p735
sg12
F628.37841269841272
sg13
I44100
sbg4
(g5
g6
NtRp736
(dp737
g9
I2
sg10
S'/home/ubuntu/DSSGAN/data/train/Lushlife - Toynbee Suite/acc.wav'
p738
sg12
F628.37841269841272
sg13
I44100
sbg4
(g5
g6
NtRp739
(dp740
g9
I2
sg10
S'/home/ubuntu/DSSGAN/data/train/Lushlife - Toynbee Suite/drums.wav'
p741
sg12
F628.37841269841272
sg13
I44100
sbtp742
a(g4
(g5
g6
NtRp743
(dp744
g9
I2
sg10
S'/home/ubuntu/DSSGAN/data/train/Hop Along - Sister Cities/mix.wav'
p745
sg12
F283.23700680272111
sg13
I44100
sbg4
(g5
g6
NtRp746
(dp747
g9
I2
sg10
S'/home/ubuntu/DSSGAN/data/train/Hop Along - Sister Cities/acc.wav'
p748
sg12
F283.23700680272111
sg13
I44100
sbg4
(g5
g6
NtRp749
(dp750
g9
I2
sg10
S'/home/ubuntu/DSSGAN/data/train/Hop Along - Sister Cities/drums.wav'
p751
sg12
F283.23700680272111
sg13
I44100
sbtp752
a(g4
(g5
g6
NtRp753
(dp754
g9
I2
sg10
S'/home/ubuntu/DSSGAN/data/train/Music Delta - Hendrix/mix.wav'
p755
sg12
F19.644081632653062
sg13
I44100
sbg4
(g5
g6
NtRp756
(dp757
g9
I2
sg10
S'/home/ubuntu/DSSGAN/data/train/Music Delta - Hendrix/acc.wav'
p758
sg12
F19.644081632653062
sg13
I44100
sbg4
(g5
g6
NtRp759
(dp760
g9
I2
sg10
S'/home/ubuntu/DSSGAN/data/train/Music Delta - Hendrix/drums.wav'
p761
sg12
F19.644081632653062
sg13
I44100
sbtp762
a(g4
(g5
g6
NtRp763
(dp764
g9
I2
sg10
S'/home/ubuntu/DSSGAN/data/train/The Districts - Vermont/mix.wav'
p765
sg12
F227.97351473922902
sg13
I44100
sbg4
(g5
g6
NtRp766
(dp767
g9
I2
sg10
S'/home/ubuntu/DSSGAN/data/train/The Districts - Vermont/acc.wav'
p768
sg12
F227.97351473922902
sg13
I44100
sbg4
(g5
g6
NtRp769
(dp770
g9
I2
sg10
S'/home/ubuntu/DSSGAN/data/train/The Districts - Vermont/drums.wav'
p771
sg12
F227.97351473922902
sg13
I44100
sbtp772
a(g4
(g5
g6
NtRp773
(dp774
g9
I2
sg10
S'/home/ubuntu/DSSGAN/data/train/Invisible Familiars - Disturbing Wildlife/mix.wav'
p775
sg12
F218.4997732426304
sg13
I44100
sbg4
(g5
g6
NtRp776
(dp777
g9
I2
sg10
S'/home/ubuntu/DSSGAN/data/train/Invisible Familiars - Disturbing Wildlife/acc.wav'
p778
sg12
F218.4997732426304
sg13
I44100
sbg4
(g5
g6
NtRp779
(dp780
g9
I2
sg10
S'/home/ubuntu/DSSGAN/data/train/Invisible Familiars - Disturbing Wildlife/drums.wav'
p781
sg12
F218.4997732426304
sg13
I44100
sbtp782
a(g4
(g5
g6
NtRp783
(dp784
g9
I2
sg10
S"/home/ubuntu/DSSGAN/data/train/Phre The Eon - Everybody's Falling Apart/mix.wav"
p785
sg12
F224.23510204081632
sg13
I44100
sbg4
(g5
g6
NtRp786
(dp787
g9
I2
sg10
S"/home/ubuntu/DSSGAN/data/train/Phre The Eon - Everybody's Falling Apart/acc.wav"
p788
sg12
F224.23510204081632
sg13
I44100
sbg4
(g5
g6
NtRp789
(dp790
g9
I2
sg10
S"/home/ubuntu/DSSGAN/data/train/Phre The Eon - Everybody's Falling Apart/drums.wav"
p791
sg12
F224.23510204081632
sg13
I44100
sbtp792
a(g4
(g5
g6
NtRp793
(dp794
g9
I2
sg10
S'/home/ubuntu/DSSGAN/data/train/Music Delta - 80s Rock/mix.wav'
p795
sg12
F36.733968253968257
sg13
I44100
sbg4
(g5
g6
NtRp796
(dp797
g9
I2
sg10
S'/home/ubuntu/DSSGAN/data/train/Music Delta - 80s Rock/acc.wav'
p798
sg12
F36.733968253968257
sg13
I44100
sbg4
(g5
g6
NtRp799
(dp800
g9
I2
sg10
S'/home/ubuntu/DSSGAN/data/train/Music Delta - 80s Rock/drums.wav'
p801
sg12
F36.733968253968257
sg13
I44100
sbtp802
a(g4
(g5
g6
NtRp803
(dp804
g9
I2
sg10
S'/home/ubuntu/DSSGAN/data/train/Celestial Shore - Die For Us/mix.wav'
p805
sg12
F278.47691609977323
sg13
I44100
sbg4
(g5
g6
NtRp806
(dp807
g9
I2
sg10
S'/home/ubuntu/DSSGAN/data/train/Celestial Shore - Die For Us/acc.wav'
p808
sg12
F278.47691609977323
sg13
I44100
sbg4
(g5
g6
NtRp809
(dp810
g9
I2
sg10
S'/home/ubuntu/DSSGAN/data/train/Celestial Shore - Die For Us/drums.wav'
p811
sg12
F278.47691609977323
sg13
I44100
sbtp812
a(g4
(g5
g6
NtRp813
(dp814
g9
I2
sg10
S'/home/ubuntu/DSSGAN/data/train/Music Delta - Grunge/mix.wav'
p815
sg12
F41.65659863945578
sg13
I44100
sbg4
(g5
g6
NtRp816
(dp817
g9
I2
sg10
S'/home/ubuntu/DSSGAN/data/train/Music Delta - Grunge/acc.wav'
p818
sg12
F41.65659863945578
sg13
I44100
sbg4
(g5
g6
NtRp819
(dp820
g9
I2
sg10
S'/home/ubuntu/DSSGAN/data/train/Music Delta - Grunge/drums.wav'
p821
sg12
F41.65659863945578
sg13
I44100
sbtp822
a(g4
(g5
g6
NtRp823
(dp824
g9
I2
sg10
S'/home/ubuntu/DSSGAN/data/train/Triviul - Dorothy/mix.wav'
p825
sg12
F187.36181405895692
sg13
I44100
sbg4
(g5
g6
NtRp826
(dp827
g9
I2
sg10
S'/home/ubuntu/DSSGAN/data/train/Triviul - Dorothy/acc.wav'
p828
sg12
F187.36181405895692
sg13
I44100
sbg4
(g5
g6
NtRp829
(dp830
g9
I2
sg10
S'/home/ubuntu/DSSGAN/data/train/Triviul - Dorothy/drums.wav'
p831
sg12
F187.36181405895692
sg13
I44100
sbtp832
a(g4
(g5
g6
NtRp833
(dp834
g9
I2
sg10
S'/home/ubuntu/DSSGAN/data/train/Young Griffo - Pennies/mix.wav'
p835
sg12
F277.803537414966
sg13
I44100
sbg4
(g5
g6
NtRp836
(dp837
g9
I2
sg10
S'/home/ubuntu/DSSGAN/data/train/Young Griffo - Pennies/acc.wav'
p838
sg12
F277.803537414966
sg13
I44100
sbg4
(g5
g6
NtRp839
(dp840
g9
I2
sg10
S'/home/ubuntu/DSSGAN/data/train/Young Griffo - Pennies/drums.wav'
p841
sg12
F277.803537414966
sg13
I44100
sbtp842
a(g4
(g5
g6
NtRp843
(dp844
g9
I2
sg10
S'/home/ubuntu/DSSGAN/data/train/St Vitus - Word Gets Around/mix.wav'
p845
sg12
F247.01387755102041
sg13
I44100
sbg4
(g5
g6
NtRp846
(dp847
g9
I2
sg10
S'/home/ubuntu/DSSGAN/data/train/St Vitus - Word Gets Around/acc.wav'
p848
sg12
F247.01387755102041
sg13
I44100
sbg4
(g5
g6
NtRp849
(dp850
g9
I2
sg10
S'/home/ubuntu/DSSGAN/data/train/St Vitus - Word Gets Around/drums.wav'
p851
sg12
F247.01387755102041
sg13
I44100
sbtp852
a(g4
(g5
g6
NtRp853
(dp854
g9
I2
sg10
S'/home/ubuntu/DSSGAN/data/train/BigTroubles - Phantom/mix.wav'
p855
sg12
F146.7501133786848
sg13
I44100
sbg4
(g5
g6
NtRp856
(dp857
g9
I2
sg10
S'/home/ubuntu/DSSGAN/data/train/BigTroubles - Phantom/acc.wav'
p858
sg12
F146.7501133786848
sg13
I44100
sbg4
(g5
g6
NtRp859
(dp860
g9
I2
sg10
S'/home/ubuntu/DSSGAN/data/train/BigTroubles - Phantom/drums.wav'
p861
sg12
F146.7501133786848
sg13
I44100
sbtp862
a(g4
(g5
g6
NtRp863
(dp864
g9
I2
sg10
S'/home/ubuntu/DSSGAN/data/train/The So So Glos - Emergency/mix.wav'
p865
sg12
F166.81215419501135
sg13
I44100
sbg4
(g5
g6
NtRp866
(dp867
g9
I2
sg10
S'/home/ubuntu/DSSGAN/data/train/The So So Glos - Emergency/acc.wav'
p868
sg12
F166.81215419501135
sg13
I44100
sbg4
(g5
g6
NtRp869
(dp870
g9
I2
sg10
S'/home/ubuntu/DSSGAN/data/train/The So So Glos - Emergency/drums.wav'
p871
sg12
F166.81215419501135
sg13
I44100
sbtp872
a(g4
(g5
g6
NtRp873
(dp874
g9
I2
sg10
S'/home/ubuntu/DSSGAN/data/train/Hezekiah Jones - Borrowed Heart/mix.wav'
p875
sg12
F241.39464852607711
sg13
I44100
sbg4
(g5
g6
NtRp876
(dp877
g9
I2
sg10
S'/home/ubuntu/DSSGAN/data/train/Hezekiah Jones - Borrowed Heart/acc.wav'
p878
sg12
F241.39464852607711
sg13
I44100
sbg4
(g5
g6
NtRp879
(dp880
g9
I2
sg10
S'/home/ubuntu/DSSGAN/data/train/Hezekiah Jones - Borrowed Heart/drums.wav'
p881
sg12
F241.39464852607711
sg13
I44100
sbtp882
a(g4
(g5
g6
NtRp883
(dp884
g9
I2
sg10
S'/home/ubuntu/DSSGAN/data/train/Flags - 54/mix.wav'
p885
sg12
F315.16444444444443
sg13
I44100
sbg4
(g5
g6
NtRp886
(dp887
g9
I2
sg10
S'/home/ubuntu/DSSGAN/data/train/Flags - 54/acc.wav'
p888
sg12
F315.16444444444443
sg13
I44100
sbg4
(g5
g6
NtRp889
(dp890
g9
I2
sg10
S'/home/ubuntu/DSSGAN/data/train/Flags - 54/drums.wav'
p891
sg12
F315.16444444444443
sg13
I44100
sbtp892
a(g4
(g5
g6
NtRp893
(dp894
g9
I2
sg10
S'/home/ubuntu/DSSGAN/data/train/Patrick Talbot - A Reason To Leave/mix.wav'
p895
sg12
F259.55265306122448
sg13
I44100
sbg4
(g5
g6
NtRp896
(dp897
g9
I2
sg10
S'/home/ubuntu/DSSGAN/data/train/Patrick Talbot - A Reason To Leave/acc.wav'
p898
sg12
F259.55265306122448
sg13
I44100
sbg4
(g5
g6
NtRp899
(dp900
g9
I2
sg10
S'/home/ubuntu/DSSGAN/data/train/Patrick Talbot - A Reason To Leave/drums.wav'
p901
sg12
F259.55265306122448
sg13
I44100
sbtp902
a(g4
(g5
g6
NtRp903
(dp904
g9
I2
sg10
S'/home/ubuntu/DSSGAN/data/train/Music Delta - Beatles/mix.wav'
p905
sg12
F36.176689342403627
sg13
I44100
sbg4
(g5
g6
NtRp906
(dp907
g9
I2
sg10
S'/home/ubuntu/DSSGAN/data/train/Music Delta - Beatles/acc.wav'
p908
sg12
F36.176689342403627
sg13
I44100
sbg4
(g5
g6
NtRp909
(dp910
g9
I2
sg10
S'/home/ubuntu/DSSGAN/data/train/Music Delta - Beatles/drums.wav'
p911
sg12
F36.176689342403627
sg13
I44100
sbtp912
a(g4
(g5
g6
NtRp913
(dp914
g9
I2
sg10
S'/home/ubuntu/DSSGAN/data/train/Creepoid - OldTree/mix.wav'
p915
sg12
F302.02195011337869
sg13
I44100
sbg4
(g5
g6
NtRp916
(dp917
g9
I2
sg10
S'/home/ubuntu/DSSGAN/data/train/Creepoid - OldTree/acc.wav'
p918
sg12
F302.02195011337869
sg13
I44100
sbg4
(g5
g6
NtRp919
(dp920
g9
I2
sg10
S'/home/ubuntu/DSSGAN/data/train/Creepoid - OldTree/drums.wav'
p921
sg12
F302.02195011337869
sg13
I44100
sbtp922
a(g4
(g5
g6
NtRp923
(dp924
g9
I2
sg10
S'/home/ubuntu/DSSGAN/data/train/Jokers, Jacks & Kings - Sea Of Leaves/mix.wav'
p925
sg12
F191.47174603174602
sg13
I44100
sbg4
(g5
g6
NtRp926
(dp927
g9
I2
sg10
S'/home/ubuntu/DSSGAN/data/train/Jokers, Jacks & Kings - Sea Of Leaves/acc.wav'
p928
sg12
F191.47174603174602
sg13
I44100
sbg4
(g5
g6
NtRp929
(dp930
g9
I2
sg10
S'/home/ubuntu/DSSGAN/data/train/Jokers, Jacks & Kings - Sea Of Leaves/drums.wav'
p931
sg12
F191.47174603174602
sg13
I44100
sbtp932
a(g4
(g5
g6
NtRp933
(dp934
g9
I1
sg10
S'/home/ubuntu/DSSGAN/data/train/6/mix.wav'
p935
sg12
F271.05884353741499
sg13
I44100
sbg4
(g5
g6
NtRp936
(dp937
g9
I1
sg10
S'/home/ubuntu/DSSGAN/data/train/6/acc.wav'
p938
sg12
F271.05884353741499
sg13
I44100
sbg4
(g5
g6
NtRp939
(dp940
g9
I1
sg10
S'/home/ubuntu/DSSGAN/data/train/6/drums.wav'
p941
sg12
F271.05884353741499
sg13
I44100
sbtp942
a(g4
(g5
g6
NtRp943
(dp944
g9
I2
sg10
S'/home/ubuntu/DSSGAN/data/train/Steven Clark - Bounty/mix.wav'
p945
sg12
F289.27419501133789
sg13
I44100
sbg4
(g5
g6
NtRp946
(dp947
g9
I2
sg10
S'/home/ubuntu/DSSGAN/data/train/Steven Clark - Bounty/acc.wav'
p948
sg12
F289.27419501133789
sg13
I44100
sbg4
(g5
g6
NtRp949
(dp950
g9
I2
sg10
S'/home/ubuntu/DSSGAN/data/train/Steven Clark - Bounty/drums.wav'
p951
sg12
F289.27419501133789
sg13
I44100
sbtp952
a(g4
(g5
g6
NtRp953
(dp954
g9
I2
sg10
S'/home/ubuntu/DSSGAN/data/train/Tim Taler - Stalker/mix.wav'
p955
sg12
F237.63301587301586
sg13
I44100
sbg4
(g5
g6
NtRp956
(dp957
g9
I2
sg10
S'/home/ubuntu/DSSGAN/data/train/Tim Taler - Stalker/acc.wav'
p958
sg12
F237.63301587301586
sg13
I44100
sbg4
(g5
g6
NtRp959
(dp960
g9
I2
sg10
S'/home/ubuntu/DSSGAN/data/train/Tim Taler - Stalker/drums.wav'
p961
sg12
F237.63301587301586
sg13
I44100
sbtp962
a(g4
(g5
g6
NtRp963
(dp964
g9
I2
sg10
S'/home/ubuntu/DSSGAN/data/train/RB_NoGravity/mix.wav'
p965
sg12
F165.58149659863946
sg13
I44100
sbg4
(g5
g6
NtRp966
(dp967
g9
I2
sg10
S'/home/ubuntu/DSSGAN/data/train/RB_NoGravity/acc.wav'
p968
sg12
F165.58149659863946
sg13
I44100
sbg4
(g5
g6
NtRp969
(dp970
g9
I2
sg10
S'/home/ubuntu/DSSGAN/data/train/RB_NoGravity/drums.wav'
p971
sg12
F165.58149659863946
sg13
I44100
sbtp972
a(g4
(g5
g6
NtRp973
(dp974
g9
I2
sg10
S'/home/ubuntu/DSSGAN/data/train/Grants - PunchDrunk/mix.wav'
p975
sg12
F204.40526077097505
sg13
I44100
sbg4
(g5
g6
NtRp976
(dp977
g9
I2
sg10
S'/home/ubuntu/DSSGAN/data/train/Grants - PunchDrunk/acc.wav'
p978
sg12
F204.40526077097505
sg13
I44100
sbg4
(g5
g6
NtRp979
(dp980
g9
I2
sg10
S'/home/ubuntu/DSSGAN/data/train/Grants - PunchDrunk/drums.wav'
p981
sg12
F204.40526077097505
sg13
I44100
sbtp982
a(g4
(g5
g6
NtRp983
(dp984
g9
I2
sg10
S'/home/ubuntu/DSSGAN/data/train/Remember December - C U Next Time/mix.wav'
p985
sg12
F242.53242630385486
sg13
I44100
sbg4
(g5
g6
NtRp986
(dp987
g9
I2
sg10
S'/home/ubuntu/DSSGAN/data/train/Remember December - C U Next Time/acc.wav'
p988
sg12
F242.53242630385486
sg13
I44100
sbg4
(g5
g6
NtRp989
(dp990
g9
I2
sg10
S'/home/ubuntu/DSSGAN/data/train/Remember December - C U Next Time/drums.wav'
p991
sg12
F242.53242630385486
sg13
I44100
sbtp992
a(g4
(g5
g6
NtRp993
(dp994
g9
I2
sg10
S'/home/ubuntu/DSSGAN/data/train/Snowmine - Curfews/mix.wav'
p995
sg12
F275.01714285714286
sg13
I44100
sbg4
(g5
g6
NtRp996
(dp997
g9
I2
sg10
S'/home/ubuntu/DSSGAN/data/train/Snowmine - Curfews/acc.wav'
p998
sg12
F275.01714285714286
sg13
I44100
sbg4
(g5
g6
NtRp999
(dp1000
g9
I2
sg10
S'/home/ubuntu/DSSGAN/data/train/Snowmine - Curfews/drums.wav'
p1001
sg12
F275.01714285714286
sg13
I44100
sbtp1002
a(g4
(g5
g6
NtRp1003
(dp1004
g9
I2
sg10
S'/home/ubuntu/DSSGAN/data/train/Faces On Film - Waiting For Ga/mix.wav'
p1005
sg12
F257.43963718820862
sg13
I44100
sbg4
(g5
g6
NtRp1006
(dp1007
g9
I2
sg10
S'/home/ubuntu/DSSGAN/data/train/Faces On Film - Waiting For Ga/acc.wav'
p1008
sg12
F257.43963718820862
sg13
I44100
sbg4
(g5
g6
NtRp1009
(dp1010
g9
I2
sg10
S'/home/ubuntu/DSSGAN/data/train/Faces On Film - Waiting For Ga/drums.wav'
p1011
sg12
F257.43963718820862
sg13
I44100
sbtp1012
a(g4
(g5
g6
NtRp1013
(dp1014
g9
I2
sg10
S'/home/ubuntu/DSSGAN/data/train/Johnny Lokke - Whisper To A Scream/mix.wav'
p1015
sg12
F255.32662131519274
sg13
I44100
sbg4
(g5
g6
NtRp1016
(dp1017
g9
I2
sg10
S'/home/ubuntu/DSSGAN/data/train/Johnny Lokke - Whisper To A Scream/acc.wav'
p1018
sg12
F255.32662131519274
sg13
I44100
sbg4
(g5
g6
NtRp1019
(dp1020
g9
I2
sg10
S'/home/ubuntu/DSSGAN/data/train/Johnny Lokke - Whisper To A Scream/drums.wav'
p1021
sg12
F255.32662131519274
sg13
I44100
sbtp1022
a(g4
(g5
g6
NtRp1023
(dp1024
g9
I2
sg10
S'/home/ubuntu/DSSGAN/data/train/Actions - South Of The Water/mix.wav'
p1025
sg12
F176.61097505668934
sg13
I44100
sbg4
(g5
g6
NtRp1026
(dp1027
g9
I2
sg10
S'/home/ubuntu/DSSGAN/data/train/Actions - South Of The Water/acc.wav'
p1028
sg12
F176.61097505668934
sg13
I44100
sbg4
(g5
g6
NtRp1029
(dp1030
g9
I2
sg10
S'/home/ubuntu/DSSGAN/data/train/Actions - South Of The Water/drums.wav'
p1031
sg12
F176.61097505668934
sg13
I44100
sbtp1032
a(g4
(g5
g6
NtRp1033
(dp1034
g9
I1
sg10
S'/home/ubuntu/DSSGAN/data/train/10/mix.wav'
p1035
sg12
F139.35485260770974
sg13
I44100
sbg4
(g5
g6
NtRp1036
(dp1037
g9
I1
sg10
S'/home/ubuntu/DSSGAN/data/train/10/acc.wav'
p1038
sg12
F139.35485260770974
sg13
I44100
sbg4
(g5
g6
NtRp1039
(dp1040
g9
I1
sg10
S'/home/ubuntu/DSSGAN/data/train/10/drums.wav'
p1041
sg12
F139.35485260770974
sg13
I44100
sbtp1042
a(g4
(g5
g6
NtRp1043
(dp1044
g9
I2
sg10
S'/home/ubuntu/DSSGAN/data/train/A Classic Education - NightOwl/mix.wav'
p1045
sg12
F171.24716553287982
sg13
I44100
sbg4
(g5
g6
NtRp1046
(dp1047
g9
I2
sg10
S'/home/ubuntu/DSSGAN/data/train/A Classic Education - NightOwl/acc.wav'
p1048
sg12
F171.24716553287982
sg13
I44100
sbg4
(g5
g6
NtRp1049
(dp1050
g9
I2
sg10
S'/home/ubuntu/DSSGAN/data/train/A Classic Education - NightOwl/drums.wav'
p1051
sg12
F171.24716553287982
sg13
I44100
sbtp1052
a(g4
(g5
g6
NtRp1053
(dp1054
g9
I2
sg10
S'/home/ubuntu/DSSGAN/data/train/Titanium - Haunted Age/mix.wav'
p1055
sg12
F248.10521541950112
sg13
I44100
sbg4
(g5
g6
NtRp1056
(dp1057
g9
I2
sg10
S'/home/ubuntu/DSSGAN/data/train/Titanium - Haunted Age/acc.wav'
p1058
sg12
F248.10521541950112
sg13
I44100
sbg4
(g5
g6
NtRp1059
(dp1060
g9
I2
sg10
S'/home/ubuntu/DSSGAN/data/train/Titanium - Haunted Age/drums.wav'
p1061
sg12
F248.10521541950112
sg13
I44100
sbtp1062
a(g4
(g5
g6
NtRp1063
(dp1064
g9
I2
sg10
S'/home/ubuntu/DSSGAN/data/train/Voelund - Comfort Lives In Belief/mix.wav'
p1065
sg12
F209.90839002267575
sg13
I44100
sbg4
(g5
g6
NtRp1066
(dp1067
g9
I2
sg10
S'/home/ubuntu/DSSGAN/data/train/Voelund - Comfort Lives In Belief/acc.wav'
p1068
sg12
F209.90839002267575
sg13
I44100
sbg4
(g5
g6
NtRp1069
(dp1070
g9
I2
sg10
S'/home/ubuntu/DSSGAN/data/train/Voelund - Comfort Lives In Belief/drums.wav'
p1071
sg12
F209.90839002267575
sg13
I44100
sbtp1072
a(g4
(g5
g6
NtRp1073
(dp1074
g9
I2
sg10
S'/home/ubuntu/DSSGAN/data/train/RW_Zarad/mix.wav'
p1075
sg12
F157.36163265306124
sg13
I44100
sbg4
(g5
g6
NtRp1076
(dp1077
g9
I2
sg10
S'/home/ubuntu/DSSGAN/data/train/RW_Zarad/acc.wav'
p1078
sg12
F157.36163265306124
sg13
I44100
sbg4
(g5
g6
NtRp1079
(dp1080
g9
I2
sg10
S'/home/ubuntu/DSSGAN/data/train/RW_Zarad/drums.wav'
p1081
sg12
F157.36163265306124
sg13
I44100
sbtp1082
a(g4
(g5
g6
NtRp1083
(dp1084
g9
I2
sg10
S'/home/ubuntu/DSSGAN/data/train/NR_HotToddy/mix.wav'
p1085
sg12
F234.15002267573695
sg13
I44100
sbg4
(g5
g6
NtRp1086
(dp1087
g9
I2
sg10
S'/home/ubuntu/DSSGAN/data/train/NR_HotToddy/acc.wav'
p1088
sg12
F234.15002267573695
sg13
I44100
sbg4
(g5
g6
NtRp1089
(dp1090
g9
I2
sg10
S'/home/ubuntu/DSSGAN/data/train/NR_HotToddy/drums.wav'
p1091
sg12
F234.15002267573695
sg13
I44100
sbtp1092
a(g4
(g5
g6
NtRp1093
(dp1094
g9
I2
sg10
S'/home/ubuntu/DSSGAN/data/train/Alexander Ross - Velvet Curtain/mix.wav'
p1095
sg12
F514.29877551020411
sg13
I44100
sbg4
(g5
g6
NtRp1096
(dp1097
g9
I2
sg10
S'/home/ubuntu/DSSGAN/data/train/Alexander Ross - Velvet Curtain/acc.wav'
p1098
sg12
F514.29877551020411
sg13
I44100
sbg4
(g5
g6
NtRp1099
(dp1100
g9
I2
sg10
S'/home/ubuntu/DSSGAN/data/train/Alexander Ross - Velvet Curtain/drums.wav'
p1101
sg12
F514.29877551020411
sg13
I44100
sbtp1102
a(g4
(g5
g6
NtRp1103
(dp1104
g9
I2
sg10
S'/home/ubuntu/DSSGAN/data/train/Skelpolu - Human Mistakes/mix.wav'
p1105
sg12
F324.49886621315193
sg13
I44100
sbg4
(g5
g6
NtRp1106
(dp1107
g9
I2
sg10
S'/home/ubuntu/DSSGAN/data/train/Skelpolu - Human Mistakes/acc.wav'
p1108
sg12
F324.49886621315193
sg13
I44100
sbg4
(g5
g6
NtRp1109
(dp1110
g9
I2
sg10
S'/home/ubuntu/DSSGAN/data/train/Skelpolu - Human Mistakes/drums.wav'
p1111
sg12
F324.49886621315193
sg13
I44100
sbtp1112
a(g4
(g5
g6
NtRp1113
(dp1114
g9
I2
sg10
S'/home/ubuntu/DSSGAN/data/train/Music Delta - Rock/mix.wav'
p1115
sg12
F12.910294784580499
sg13
I44100
sbg4
(g5
g6
NtRp1116
(dp1117
g9
I2
sg10
S'/home/ubuntu/DSSGAN/data/train/Music Delta - Rock/acc.wav'
p1118
sg12
F12.910294784580499
sg13
I44100
sbg4
(g5
g6
NtRp1119
(dp1120
g9
I2
sg10
S'/home/ubuntu/DSSGAN/data/train/Music Delta - Rock/drums.wav'
p1121
sg12
F12.910294784580499
sg13
I44100
sbtp1122
a(g4
(g5
g6
NtRp1123
(dp1124
g9
I1
sg10
S'/home/ubuntu/DSSGAN/data/train/3/mix.wav'
p1125
sg12
F445
sg13
I44100
sbg4
(g5
g6
NtRp1126
(dp1127
g9
I1
sg10
S'/home/ubuntu/DSSGAN/data/train/3/acc.wav'
p1128
sg12
F445
sg13
I44100
sbg4
(g5
g6
NtRp1129
(dp1130
g9
I1
sg10
S'/home/ubuntu/DSSGAN/data/train/3/drums.wav'
p1131
sg12
F445
sg13
I44100
sbtp1132
a(g4
(g5
g6
NtRp1133
(dp1134
g9
I2
sg10
S'/home/ubuntu/DSSGAN/data/train/HS_Koronium5/mix.wav'
p1135
sg12
F166.64961451247166
sg13
I44100
sbg4
(g5
g6
NtRp1136
(dp1137
g9
I2
sg10
S'/home/ubuntu/DSSGAN/data/train/HS_Koronium5/acc.wav'
p1138
sg12
F166.64961451247166
sg13
I44100
sbg4
(g5
g6
NtRp1139
(dp1140
g9
I2
sg10
S'/home/ubuntu/DSSGAN/data/train/HS_Koronium5/drums.wav'
p1141
sg12
F166.64961451247166
sg13
I44100
sbtp1142
a(g4
(g5
g6
NtRp1143
(dp1144
g9
I2
sg10
S'/home/ubuntu/DSSGAN/data/train/Traffic Experiment - Sirens/mix.wav'
p1145
sg12
F421.2796371882086
sg13
I44100
sbg4
(g5
g6
NtRp1146
(dp1147
g9
I2
sg10
S'/home/ubuntu/DSSGAN/data/train/Traffic Experiment - Sirens/acc.wav'
p1148
sg12
F421.2796371882086
sg13
I44100
sbg4
(g5
g6
NtRp1149
(dp1150
g9
I2
sg10
S'/home/ubuntu/DSSGAN/data/train/Traffic Experiment - Sirens/drums.wav'
p1151
sg12
F421.2796371882086
sg13
I44100
sbtp1152
a(g4
(g5
g6
NtRp1153
(dp1154
g9
I2
sg10
S'/home/ubuntu/DSSGAN/data/train/Leaf - Come Around/mix.wav'
p1155
sg12
F264.38240362811791
sg13
I44100
sbg4
(g5
g6
NtRp1156
(dp1157
g9
I2
sg10
S'/home/ubuntu/DSSGAN/data/train/Leaf - Come Around/acc.wav'
p1158
sg12
F264.38240362811791
sg13
I44100
sbg4
(g5
g6
NtRp1159
(dp1160
g9
I2
sg10
S'/home/ubuntu/DSSGAN/data/train/Leaf - Come Around/drums.wav'
p1161
sg12
F264.38240362811791
sg13
I44100
sbtp1162
a(g4
(g5
g6
NtRp1163
(dp1164
g9
I2
sg10
S'/home/ubuntu/DSSGAN/data/train/Helado Negro - Mitad Del Mundo/mix.wav'
p1165
sg12
F181.67292517006803
sg13
I44100
sbg4
(g5
g6
NtRp1166
(dp1167
g9
I2
sg10
S'/home/ubuntu/DSSGAN/data/train/Helado Negro - Mitad Del Mundo/acc.wav'
p1168
sg12
F181.67292517006803
sg13
I44100
sbg4
(g5
g6
NtRp1169
(dp1170
g9
I2
sg10
S'/home/ubuntu/DSSGAN/data/train/Helado Negro - Mitad Del Mundo/drums.wav'
p1171
sg12
F181.67292517006803
sg13
I44100
sbtp1172
a(g4
(g5
g6
NtRp1173
(dp1174
g9
I2
sg10
S'/home/ubuntu/DSSGAN/data/train/Cnoc An Tursa - Bannockburn/mix.wav'
p1175
sg12
F294.52190476190475
sg13
I44100
sbg4
(g5
g6
NtRp1176
(dp1177
g9
I2
sg10
S'/home/ubuntu/DSSGAN/data/train/Cnoc An Tursa - Bannockburn/acc.wav'
p1178
sg12
F294.52190476190475
sg13
I44100
sbg4
(g5
g6
NtRp1179
(dp1180
g9
I2
sg10
S'/home/ubuntu/DSSGAN/data/train/Cnoc An Tursa - Bannockburn/drums.wav'
p1181
sg12
F294.52190476190475
sg13
I44100
sbtp1182
a(g4
(g5
g6
NtRp1183
(dp1184
g9
I2
sg10
S'/home/ubuntu/DSSGAN/data/train/AvaLuna - Waterduct/mix.wav'
p1185
sg12
F259.11147392290252
sg13
I44100
sbg4
(g5
g6
NtRp1186
(dp1187
g9
I2
sg10
S'/home/ubuntu/DSSGAN/data/train/AvaLuna - Waterduct/acc.wav'
p1188
sg12
F259.11147392290252
sg13
I44100
sbg4
(g5
g6
NtRp1189
(dp1190
g9
I2
sg10
S'/home/ubuntu/DSSGAN/data/train/AvaLuna - Waterduct/drums.wav'
p1191
sg12
F259.11147392290252
sg13
I44100
sbtp1192
a(g4
(g5
g6
NtRp1193
(dp1194
g9
I2
sg10
S'/home/ubuntu/DSSGAN/data/train/Wall Of Death - Femme/mix.wav'
p1195
sg12
F238.93333333333334
sg13
I44100
sbg4
(g5
g6
NtRp1196
(dp1197
g9
I2
sg10
S'/home/ubuntu/DSSGAN/data/train/Wall Of Death - Femme/acc.wav'
p1198
sg12
F238.93333333333334
sg13
I44100
sbg4
(g5
g6
NtRp1199
(dp1200
g9
I2
sg10
S'/home/ubuntu/DSSGAN/data/train/Wall Of Death - Femme/drums.wav'
p1201
sg12
F238.93333333333334
sg13
I44100
sbtp1202
a(g4
(g5
g6
NtRp1203
(dp1204
g9
I2
sg10
S'/home/ubuntu/DSSGAN/data/train/Strand Of Oaks - Spacestation/mix.wav'
p1205
sg12
F243.67020408163265
sg13
I44100
sbg4
(g5
g6
NtRp1206
(dp1207
g9
I2
sg10
S'/home/ubuntu/DSSGAN/data/train/Strand Of Oaks - Spacestation/acc.wav'
p1208
sg12
F243.67020408163265
sg13
I44100
sbg4
(g5
g6
NtRp1209
(dp1210
g9
I2
sg10
S'/home/ubuntu/DSSGAN/data/train/Strand Of Oaks - Spacestation/drums.wav'
p1211
sg12
F243.67020408163265
sg13
I44100
sbtp1212
a(g4
(g5
g6
NtRp1213
(dp1214
g9
I2
sg10
S'/home/ubuntu/DSSGAN/data/train/Giselle - Moss/mix.wav'
p1215
sg12
F176.84317460317462
sg13
I44100
sbg4
(g5
g6
NtRp1216
(dp1217
g9
I2
sg10
S'/home/ubuntu/DSSGAN/data/train/Giselle - Moss/acc.wav'
p1218
sg12
F201.71174603174603
sg13
I44100
sbg4
(g5
g6
NtRp1219
(dp1220
g9
I2
sg10
S'/home/ubuntu/DSSGAN/data/train/Giselle - Moss/drums.wav'
p1221
sg12
F201.71174603174603
sg13
I44100
sbtp1222
a(g4
(g5
g6
NtRp1223
(dp1224
g9
I2
sg10
S'/home/ubuntu/DSSGAN/data/train/Music Delta - Disco/mix.wav'
p1225
sg12
F124.59827664399093
sg13
I44100
sbg4
(g5
g6
NtRp1226
(dp1227
g9
I2
sg10
S'/home/ubuntu/DSSGAN/data/train/Music Delta - Disco/acc.wav'
p1228
sg12
F124.59827664399093
sg13
I44100
sbg4
(g5
g6
NtRp1229
(dp1230
g9
I2
sg10
S'/home/ubuntu/DSSGAN/data/train/Music Delta - Disco/drums.wav'
p1231
sg12
F124.59827664399093
sg13
I44100
sbtp1232
a(g4
(g5
g6
NtRp1233
(dp1234
g9
I2
sg10
S'/home/ubuntu/DSSGAN/data/train/James May - On The Line/mix.wav'
p1235
sg12
F256.0928798185941
sg13
I44100
sbg4
(g5
g6
NtRp1236
(dp1237
g9
I2
sg10
S'/home/ubuntu/DSSGAN/data/train/James May - On The Line/acc.wav'
p1238
sg12
F256.0928798185941
sg13
I44100
sbg4
(g5
g6
NtRp1239
(dp1240
g9
I2
sg10
S'/home/ubuntu/DSSGAN/data/train/James May - On The Line/drums.wav'
p1241
sg12
F256.0928798185941
sg13
I44100
sbtp1242
a(g4
(g5
g6
NtRp1243
(dp1244
g9
I2
sg10
S'/home/ubuntu/DSSGAN/data/train/LM_MelbourneSlam/mix.wav'
p1245
sg12
F213.80934240362811
sg13
I44100
sbg4
(g5
g6
NtRp1246
(dp1247
g9
I2
sg10
S'/home/ubuntu/DSSGAN/data/train/LM_MelbourneSlam/acc.wav'
p1248
sg12
F213.80934240362811
sg13
I44100
sbg4
(g5
g6
NtRp1249
(dp1250
g9
I2
sg10
S'/home/ubuntu/DSSGAN/data/train/LM_MelbourneSlam/drums.wav'
p1251
sg12
F213.80934240362811
sg13
I44100
sbtp1252
a(g4
(g5
g6
NtRp1253
(dp1254
g9
I2
sg10
S'/home/ubuntu/DSSGAN/data/train/Jay Menon - Through My Eyes/mix.wav'
p1255
sg12
F253.16716553287981
sg13
I44100
sbg4
(g5
g6
NtRp1256
(dp1257
g9
I2
sg10
S'/home/ubuntu/DSSGAN/data/train/Jay Menon - Through My Eyes/acc.wav'
p1258
sg12
F253.16716553287981
sg13
I44100
sbg4
(g5
g6
NtRp1259
(dp1260
g9
I2
sg10
S'/home/ubuntu/DSSGAN/data/train/Jay Menon - Through My Eyes/drums.wav'
p1261
sg12
F253.16716553287981
sg13
I44100
sbtp1262
a(g4
(g5
g6
NtRp1263
(dp1264
g9
I2
sg10
S'/home/ubuntu/DSSGAN/data/train/GK_GroundZero/mix.wav'
p1265
sg12
F178.58467120181405
sg13
I44100
sbg4
(g5
g6
NtRp1266
(dp1267
g9
I2
sg10
S'/home/ubuntu/DSSGAN/data/train/GK_GroundZero/acc.wav'
p1268
sg12
F178.58467120181405
sg13
I44100
sbg4
(g5
g6
NtRp1269
(dp1270
g9
I2
sg10
S'/home/ubuntu/DSSGAN/data/train/GK_GroundZero/drums.wav'
p1271
sg12
F178.58467120181405
sg13
I44100
sbtp1272
a(g4
(g5
g6
NtRp1273
(dp1274
g9
I2
sg10
S'/home/ubuntu/DSSGAN/data/train/Bill Chudziak - Children Of No-one/mix.wav'
p1275
sg12
F230.73668934240362
sg13
I44100
sbg4
(g5
g6
NtRp1276
(dp1277
g9
I2
sg10
S'/home/ubuntu/DSSGAN/data/train/Bill Chudziak - Children Of No-one/acc.wav'
p1278
sg12
F230.73668934240362
sg13
I44100
sbg4
(g5
g6
NtRp1279
(dp1280
g9
I2
sg10
S'/home/ubuntu/DSSGAN/data/train/Bill Chudziak - Children Of No-one/drums.wav'
p1281
sg12
F230.73668934240362
sg13
I44100
sbtp1282
a(g4
(g5
g6
NtRp1283
(dp1284
g9
I2
sg10
S'/home/ubuntu/DSSGAN/data/train/Music Delta - Country2/mix.wav'
p1285
sg12
F17.2756462585034
sg13
I44100
sbg4
(g5
g6
NtRp1286
(dp1287
g9
I2
sg10
S'/home/ubuntu/DSSGAN/data/train/Music Delta - Country2/acc.wav'
p1288
sg12
F17.2756462585034
sg13
I44100
sbg4
(g5
g6
NtRp1289
(dp1290
g9
I2
sg10
S'/home/ubuntu/DSSGAN/data/train/Music Delta - Country2/drums.wav'
p1291
sg12
F17.2756462585034
sg13
I44100
sbtp1292
a(g4
(g5
g6
NtRp1293
(dp1294
g9
I2
sg10
S'/home/ubuntu/DSSGAN/data/train/Night Panther - Fire/mix.wav'
p1295
sg12
F212.8108843537415
sg13
I44100
sbg4
(g5
g6
NtRp1296
(dp1297
g9
I2
sg10
S'/home/ubuntu/DSSGAN/data/train/Night Panther - Fire/acc.wav'
p1298
sg12
F212.8108843537415
sg13
I44100
sbg4
(g5
g6
NtRp1299
(dp1300
g9
I2
sg10
S'/home/ubuntu/DSSGAN/data/train/Night Panther - Fire/drums.wav'
p1301
sg12
F212.8108843537415
sg13
I44100
sbtp1302
a(g4
(g5
g6
NtRp1303
(dp1304
g9
I2
sg10
S'/home/ubuntu/DSSGAN/data/train/Drumtracks - Ghost Bitch/mix.wav'
p1305
sg12
F356.91392290249433
sg13
I44100
sbg4
(g5
g6
NtRp1306
(dp1307
g9
I2
sg10
S'/home/ubuntu/DSSGAN/data/train/Drumtracks - Ghost Bitch/acc.wav'
p1308
sg12
F356.91392290249433
sg13
I44100
sbg4
(g5
g6
NtRp1309
(dp1310
g9
I2
sg10
S'/home/ubuntu/DSSGAN/data/train/Drumtracks - Ghost Bitch/drums.wav'
p1311
sg12
F356.91392290249433
sg13
I44100
sbtp1312
a(g4
(g5
g6
NtRp1313
(dp1314
g9
I2
sg10
S'/home/ubuntu/DSSGAN/data/train/Sweet Lights - You Let Me Down/mix.wav'
p1315
sg12
F391.79029478458051
sg13
I44100
sbg4
(g5
g6
NtRp1316
(dp1317
g9
I2
sg10
S'/home/ubuntu/DSSGAN/data/train/Sweet Lights - You Let Me Down/acc.wav'
p1318
sg12
F391.79029478458051
sg13
I44100
sbg4
(g5
g6
NtRp1319
(dp1320
g9
I2
sg10
S'/home/ubuntu/DSSGAN/data/train/Sweet Lights - You Let Me Down/drums.wav'
p1321
sg12
F391.79029478458051
sg13
I44100
sbtp1322
a(g4
(g5
g6
NtRp1323
(dp1324
g9
I2
sg10
S'/home/ubuntu/DSSGAN/data/train/James May - All Souls Moon/mix.wav'
p1325
sg12
F220.84498866213153
sg13
I44100
sbg4
(g5
g6
NtRp1326
(dp1327
g9
I2
sg10
S'/home/ubuntu/DSSGAN/data/train/James May - All Souls Moon/acc.wav'
p1328
sg12
F220.84498866213153
sg13
I44100
sbg4
(g5
g6
NtRp1329
(dp1330
g9
I2
sg10
S'/home/ubuntu/DSSGAN/data/train/James May - All Souls Moon/drums.wav'
p1331
sg12
F220.84498866213153
sg13
I44100
sbtp1332
a(g4
(g5
g6
NtRp1333
(dp1334
g9
I2
sg10
S'/home/ubuntu/DSSGAN/data/train/CC_GrainyDub/mix.wav'
p1335
sg12
F133.58439909297053
sg13
I44100
sbg4
(g5
g6
NtRp1336
(dp1337
g9
I2
sg10
S'/home/ubuntu/DSSGAN/data/train/CC_GrainyDub/acc.wav'
p1338
sg12
F133.58439909297053
sg13
I44100
sbg4
(g5
g6
NtRp1339
(dp1340
g9
I2
sg10
S'/home/ubuntu/DSSGAN/data/train/CC_GrainyDub/drums.wav'
p1341
sg12
F133.58439909297053
sg13
I44100
sbtp1342
a(g4
(g5
g6
NtRp1343
(dp1344
g9
I2
sg10
S'/home/ubuntu/DSSGAN/data/train/Black Bloc - If You Want Success/mix.wav'
p1345
sg12
F398.5473015873016
sg13
I44100
sbg4
(g5
g6
NtRp1346
(dp1347
g9
I2
sg10
S'/home/ubuntu/DSSGAN/data/train/Black Bloc - If You Want Success/acc.wav'
p1348
sg12
F398.5473015873016
sg13
I44100
sbg4
(g5
g6
NtRp1349
(dp1350
g9
I2
sg10
S'/home/ubuntu/DSSGAN/data/train/Black Bloc - If You Want Success/drums.wav'
p1351
sg12
F398.5473015873016
sg13
I44100
sbtp1352
a(g4
(g5
g6
NtRp1353
(dp1354
g9
I2
sg10
S'/home/ubuntu/DSSGAN/data/train/Matthew Entwistle - Dont You Ever/mix.wav'
p1355
sg12
F113.82421768707484
sg13
I44100
sbg4
(g5
g6
NtRp1356
(dp1357
g9
I2
sg10
S'/home/ubuntu/DSSGAN/data/train/Matthew Entwistle - Dont You Ever/acc.wav'
p1358
sg12
F113.82421768707484
sg13
I44100
sbg4
(g5
g6
NtRp1359
(dp1360
g9
I2
sg10
S'/home/ubuntu/DSSGAN/data/train/Matthew Entwistle - Dont You Ever/drums.wav'
p1361
sg12
F113.82421768707484
sg13
I44100
sbtp1362
a(g4
(g5
g6
NtRp1363
(dp1364
g9
I2
sg10
S'/home/ubuntu/DSSGAN/data/train/Meaxic - You Listen/mix.wav'
p1365
sg12
F412.52571428571429
sg13
I44100
sbg4
(g5
g6
NtRp1366
(dp1367
g9
I2
sg10
S'/home/ubuntu/DSSGAN/data/train/Meaxic - You Listen/acc.wav'
p1368
sg12
F412.52571428571429
sg13
I44100
sbg4
(g5
g6
NtRp1369
(dp1370
g9
I2
sg10
S'/home/ubuntu/DSSGAN/data/train/Meaxic - You Listen/drums.wav'
p1371
sg12
F412.52571428571429
sg13
I44100
sbtp1372
a(g4
(g5
g6
NtRp1373
(dp1374
g9
I2
sg10
S'/home/ubuntu/DSSGAN/data/train/Secret Mountains - High Horse/mix.wav'
p1375
sg12
F355.31174603174605
sg13
I44100
sbg4
(g5
g6
NtRp1376
(dp1377
g9
I2
sg10
S'/home/ubuntu/DSSGAN/data/train/Secret Mountains - High Horse/acc.wav'
p1378
sg12
F355.31174603174605
sg13
I44100
sbg4
(g5
g6
NtRp1379
(dp1380
g9
I2
sg10
S'/home/ubuntu/DSSGAN/data/train/Secret Mountains - High Horse/drums.wav'
p1381
sg12
F355.31174603174605
sg13
I44100
sbtp1382
a(g4
(g5
g6
NtRp1383
(dp1384
g9
I2
sg10
S'/home/ubuntu/DSSGAN/data/train/Fergessen - The Wind/mix.wav'
p1385
sg12
F191.82004535147394
sg13
I44100
sbg4
(g5
g6
NtRp1386
(dp1387
g9
I2
sg10
S'/home/ubuntu/DSSGAN/data/train/Fergessen - The Wind/acc.wav'
p1388
sg12
F191.82004535147394
sg13
I44100
sbg4
(g5
g6
NtRp1389
(dp1390
g9
I2
sg10
S'/home/ubuntu/DSSGAN/data/train/Fergessen - The Wind/drums.wav'
p1391
sg12
F191.82004535147394
sg13
I44100
sbtp1392
a(g4
(g5
g6
NtRp1393
(dp1394
g9
I2
sg10
S'/home/ubuntu/DSSGAN/data/train/Chris Durban - Celebrate/mix.wav'
p1395
sg12
F301.60399092970522
sg13
I44100
sbg4
(g5
g6
NtRp1396
(dp1397
g9
I2
sg10
S'/home/ubuntu/DSSGAN/data/train/Chris Durban - Celebrate/acc.wav'
p1398
sg12
F301.60399092970522
sg13
I44100
sbg4
(g5
g6
NtRp1399
(dp1400
g9
I2
sg10
S'/home/ubuntu/DSSGAN/data/train/Chris Durban - Celebrate/drums.wav'
p1401
sg12
F301.60399092970522
sg13
I44100
sbtp1402
a(g4
(g5
g6
NtRp1403
(dp1404
g9
I2
sg10
S"/home/ubuntu/DSSGAN/data/train/Actions - Devil's Words/mix.wav"
p1405
sg12
F196.62657596371881
sg13
I44100
sbg4
(g5
g6
NtRp1406
(dp1407
g9
I2
sg10
S"/home/ubuntu/DSSGAN/data/train/Actions - Devil's Words/acc.wav"
p1408
sg12
F196.62657596371881
sg13
I44100
sbg4
(g5
g6
NtRp1409
(dp1410
g9
I2
sg10
S"/home/ubuntu/DSSGAN/data/train/Actions - Devil's Words/drums.wav"
p1411
sg12
F196.62657596371881
sg13
I44100
sbtp1412
a(g4
(g5
g6
NtRp1413
(dp1414
g9
I2
sg10
S'/home/ubuntu/DSSGAN/data/train/Leaf - Wicked/mix.wav'
p1415
sg12
F190.6358276643991
sg13
I44100
sbg4
(g5
g6
NtRp1416
(dp1417
g9
I2
sg10
S'/home/ubuntu/DSSGAN/data/train/Leaf - Wicked/acc.wav'
p1418
sg12
F190.6358276643991
sg13
I44100
sbg4
(g5
g6
NtRp1419
(dp1420
g9
I2
sg10
S'/home/ubuntu/DSSGAN/data/train/Leaf - Wicked/drums.wav'
p1421
sg12
F190.6358276643991
sg13
I44100
sbtp1422
a(g4
(g5
g6
NtRp1423
(dp1424
g9
I2
sg10
S'/home/ubuntu/DSSGAN/data/train/ANiMAL - Rockshow/mix.wav'
p1425
sg12
F165.51183673469387
sg13
I44100
sbg4
(g5
g6
NtRp1426
(dp1427
g9
I2
sg10
S'/home/ubuntu/DSSGAN/data/train/ANiMAL - Rockshow/acc.wav'
p1428
sg12
F165.51183673469387
sg13
I44100
sbg4
(g5
g6
NtRp1429
(dp1430
g9
I2
sg10
S'/home/ubuntu/DSSGAN/data/train/ANiMAL - Rockshow/drums.wav'
p1431
sg12
F165.51183673469387
sg13
I44100
sbtp1432
a(g4
(g5
g6
NtRp1433
(dp1434
g9
I2
sg10
S'/home/ubuntu/DSSGAN/data/train/MH_HoldUp/mix.wav'
p1435
sg12
F154.06439909297052
sg13
I44100
sbg4
(g5
g6
NtRp1436
(dp1437
g9
I2
sg10
S'/home/ubuntu/DSSGAN/data/train/MH_HoldUp/acc.wav'
p1438
sg12
F154.06439909297052
sg13
I44100
sbg4
(g5
g6
NtRp1439
(dp1440
g9
I2
sg10
S'/home/ubuntu/DSSGAN/data/train/MH_HoldUp/drums.wav'
p1441
sg12
F154.06439909297052
sg13
I44100
sbtp1442
a(g4
(g5
g6
NtRp1443
(dp1444
g9
I2
sg10
S'/home/ubuntu/DSSGAN/data/train/CG_AmplifiedSpace/mix.wav'
p1445
sg12
F146.91265306122449
sg13
I44100
sbg4
(g5
g6
NtRp1446
(dp1447
g9
I2
sg10
S'/home/ubuntu/DSSGAN/data/train/CG_AmplifiedSpace/acc.wav'
p1448
sg12
F146.91265306122449
sg13
I44100
sbg4
(g5
g6
NtRp1449
(dp1450
g9
I2
sg10
S'/home/ubuntu/DSSGAN/data/train/CG_AmplifiedSpace/drums.wav'
p1451
sg12
F146.91265306122449
sg13
I44100
sbtp1452
a(g4
(g5
g6
NtRp1453
(dp1454
g9
I2
sg10
S'/home/ubuntu/DSSGAN/data/train/Dreamers Of The Ghetto - Heavy Love/mix.wav'
p1455
sg12
F294.80054421768705
sg13
I44100
sbg4
(g5
g6
NtRp1456
(dp1457
g9
I2
sg10
S'/home/ubuntu/DSSGAN/data/train/Dreamers Of The Ghetto - Heavy Love/acc.wav'
p1458
sg12
F294.80054421768705
sg13
I44100
sbg4
(g5
g6
NtRp1459
(dp1460
g9
I2
sg10
S'/home/ubuntu/DSSGAN/data/train/Dreamers Of The Ghetto - Heavy Love/drums.wav'
p1461
sg12
F294.80054421768705
sg13
I44100
sbtp1462
a(g4
(g5
g6
NtRp1463
(dp1464
g9
I2
sg10
S'/home/ubuntu/DSSGAN/data/train/Aimee Norwich - Child/mix.wav'
p1465
sg12
F189.08009070294784
sg13
I44100
sbg4
(g5
g6
NtRp1466
(dp1467
g9
I2
sg10
S'/home/ubuntu/DSSGAN/data/train/Aimee Norwich - Child/acc.wav'
p1468
sg12
F189.08009070294784
sg13
I44100
sbg4
(g5
g6
NtRp1469
(dp1470
g9
I2
sg10
S'/home/ubuntu/DSSGAN/data/train/Aimee Norwich - Child/drums.wav'
p1471
sg12
F189.08009070294784
sg13
I44100
sbtp1472
a(g4
(g5
g6
NtRp1473
(dp1474
g9
I2
sg10
S"/home/ubuntu/DSSGAN/data/train/Spike Mullings - Mike's Sulking/mix.wav"
p1475
sg12
F256.69659863945577
sg13
I44100
sbg4
(g5
g6
NtRp1476
(dp1477
g9
I2
sg10
S"/home/ubuntu/DSSGAN/data/train/Spike Mullings - Mike's Sulking/acc.wav"
p1478
sg12
F256.69659863945577
sg13
I44100
sbg4
(g5
g6
NtRp1479
(dp1480
g9
I2
sg10
S"/home/ubuntu/DSSGAN/data/train/Spike Mullings - Mike's Sulking/drums.wav"
p1481
sg12
F256.69659863945577
sg13
I44100
sbtp1482
a(g4
(g5
g6
NtRp1483
(dp1484
g9
I2
sg10
S'/home/ubuntu/DSSGAN/data/train/TP_TheDeep/mix.wav'
p1485
sg12
F210.55854875283447
sg13
I44100
sbg4
(g5
g6
NtRp1486
(dp1487
g9
I2
sg10
S'/home/ubuntu/DSSGAN/data/train/TP_TheDeep/acc.wav'
p1488
sg12
F210.55854875283447
sg13
I44100
sbg4
(g5
g6
NtRp1489
(dp1490
g9
I2
sg10
S'/home/ubuntu/DSSGAN/data/train/TP_TheDeep/drums.wav'
p1491
sg12
F210.55854875283447
sg13
I44100
sbtp1492
a(g4
(g5
g6
NtRp1493
(dp1494
g9
I2
sg10
S'/home/ubuntu/DSSGAN/data/train/Music Delta - Britpop/mix.wav'
p1495
sg12
F36.594648526077094
sg13
I44100
sbg4
(g5
g6
NtRp1496
(dp1497
g9
I2
sg10
S'/home/ubuntu/DSSGAN/data/train/Music Delta - Britpop/acc.wav'
p1498
sg12
F36.594648526077094
sg13
I44100
sbg4
(g5
g6
NtRp1499
(dp1500
g9
I2
sg10
S'/home/ubuntu/DSSGAN/data/train/Music Delta - Britpop/drums.wav'
p1501
sg12
F36.594648526077094
sg13
I44100
sbtp1502
asS'valid'
p1503
(lp1504
(g4
(g5
g6
NtRp1505
(dp1506
g9
I2
sg10
S'/home/ubuntu/DSSGAN/data/valid/Johnny Lokke - Promises & Lies/mix.wav'
p1507
sg12
F276.4103401360544
sg13
I44100
sbg4
(g5
g6
NtRp1508
(dp1509
g9
I2
sg10
S'/home/ubuntu/DSSGAN/data/valid/Johnny Lokke - Promises & Lies/acc.wav'
p1510
sg12
F285.81442176870746
sg13
I44100
sbg4
(g5
g6
NtRp1511
(dp1512
g9
I2
sg10
S'/home/ubuntu/DSSGAN/data/valid/Johnny Lokke - Promises & Lies/drums.wav'
p1513
sg12
F285.81442176870746
sg13
I44100
sbtp1514
a(g4
(g5
g6
NtRp1515
(dp1516
g9
I2
sg10
S'/home/ubuntu/DSSGAN/data/valid/TS_SlowPush/mix.wav'
p1517
sg12
F150.4885260770975
sg13
I44100
sbg4
(g5
g6
NtRp1518
(dp1519
g9
I2
sg10
S'/home/ubuntu/DSSGAN/data/valid/TS_SlowPush/acc.wav'
p1520
sg12
F150.4885260770975
sg13
I44100
sbg4
(g5
g6
NtRp1521
(dp1522
g9
I2
sg10
S'/home/ubuntu/DSSGAN/data/valid/TS_SlowPush/drums.wav'
p1523
sg12
F150.4885260770975
sg13
I44100
sbtp1524
a(g4
(g5
g6
NtRp1525
(dp1526
g9
I2
sg10
S'/home/ubuntu/DSSGAN/data/valid/RB_MysticTemple/mix.wav'
p1527
sg12
F235.75219954648526
sg13
I44100
sbg4
(g5
g6
NtRp1528
(dp1529
g9
I2
sg10
S'/home/ubuntu/DSSGAN/data/valid/RB_MysticTemple/acc.wav'
p1530
sg12
F235.75219954648526
sg13
I44100
sbg4
(g5
g6
NtRp1531
(dp1532
g9
I2
sg10
S'/home/ubuntu/DSSGAN/data/valid/RB_MysticTemple/drums.wav'
p1533
sg12
F235.75219954648526
sg13
I44100
sbtp1534
a(g4
(g5
g6
NtRp1535
(dp1536
g9
I2
sg10
S'/home/ubuntu/DSSGAN/data/valid/Music Delta - Country1/mix.wav'
p1537
sg12
F34.5512925170068
sg13
I44100
sbg4
(g5
g6
NtRp1538
(dp1539
g9
I2
sg10
S'/home/ubuntu/DSSGAN/data/valid/Music Delta - Country1/acc.wav'
p1540
sg12
F34.5512925170068
sg13
I44100
sbg4
(g5
g6
NtRp1541
(dp1542
g9
I2
sg10
S'/home/ubuntu/DSSGAN/data/valid/Music Delta - Country1/drums.wav'
p1543
sg12
F34.5512925170068
sg13
I44100
sbtp1544
a(g4
(g5
g6
NtRp1545
(dp1546
g9
I2
sg10
S'/home/ubuntu/DSSGAN/data/valid/Actions - One Minute Smile/mix.wav'
p1547
sg12
F163.37560090702948
sg13
I44100
sbg4
(g5
g6
NtRp1548
(dp1549
g9
I2
sg10
S'/home/ubuntu/DSSGAN/data/valid/Actions - One Minute Smile/acc.wav'
p1550
sg12
F163.37560090702948
sg13
I44100
sbg4
(g5
g6
NtRp1551
(dp1552
g9
I2
sg10
S'/home/ubuntu/DSSGAN/data/valid/Actions - One Minute Smile/drums.wav'
p1553
sg12
F163.37560090702948
sg13
I44100
sbtp1554
a(g4
(g5
g6
NtRp1555
(dp1556
g9
I2
sg10
S'/home/ubuntu/DSSGAN/data/valid/Skelpolu - Together Alone/mix.wav'
p1557
sg12
F325.82240362811791
sg13
I44100
sbg4
(g5
g6
NtRp1558
(dp1559
g9
I2
sg10
S'/home/ubuntu/DSSGAN/data/valid/Skelpolu - Together Alone/acc.wav'
p1560
sg12
F325.82240362811791
sg13
I44100
sbg4
(g5
g6
NtRp1561
(dp1562
g9
I2
sg10
S'/home/ubuntu/DSSGAN/data/valid/Skelpolu - Together Alone/drums.wav'
p1563
sg12
F325.82240362811791
sg13
I44100
sbtp1564
a(g4
(g5
g6
NtRp1565
(dp1566
g9
I2
sg10
S'/home/ubuntu/DSSGAN/data/valid/CG_JaesGroove/mix.wav'
p1567
sg12
F145.6819954648526
sg13
I44100
sbg4
(g5
g6
NtRp1568
(dp1569
g9
I2
sg10
S'/home/ubuntu/DSSGAN/data/valid/CG_JaesGroove/acc.wav'
p1570
sg12
F145.6819954648526
sg13
I44100
sbg4
(g5
g6
NtRp1571
(dp1572
g9
I2
sg10
S'/home/ubuntu/DSSGAN/data/valid/CG_JaesGroove/drums.wav'
p1573
sg12
F145.6819954648526
sg13
I44100
sbtp1574
a(g4
(g5
g6
NtRp1575
(dp1576
g9
I2
sg10
S'/home/ubuntu/DSSGAN/data/valid/Clara Berry And Wooldog - Stella/mix.wav'
p1577
sg12
F195.55845804988661
sg13
I44100
sbg4
(g5
g6
NtRp1578
(dp1579
g9
I2
sg10
S'/home/ubuntu/DSSGAN/data/valid/Clara Berry And Wooldog - Stella/acc.wav'
p1580
sg12
F195.55845804988661
sg13
I44100
sbg4
(g5
g6
NtRp1581
(dp1582
g9
I2
sg10
S'/home/ubuntu/DSSGAN/data/valid/Clara Berry And Wooldog - Stella/drums.wav'
p1583
sg12
F195.55845804988661
sg13
I44100
sbtp1584
a(g4
(g5
g6
NtRp1585
(dp1586
g9
I2
sg10
S'/home/ubuntu/DSSGAN/data/valid/Alexander Ross - Goodbye Bolero/mix.wav'
p1587
sg12
F418.63256235827663
sg13
I44100
sbg4
(g5
g6
NtRp1588
(dp1589
g9
I2
sg10
S'/home/ubuntu/DSSGAN/data/valid/Alexander Ross - Goodbye Bolero/acc.wav'
p1590
sg12
F418.63256235827663
sg13
I44100
sbg4
(g5
g6
NtRp1591
(dp1592
g9
I2
sg10
S'/home/ubuntu/DSSGAN/data/valid/Alexander Ross - Goodbye Bolero/drums.wav'
p1593
sg12
F418.63256235827663
sg13
I44100
sbtp1594
a(g4
(g5
g6
NtRp1595
(dp1596
g9
I2
sg10
S'/home/ubuntu/DSSGAN/data/valid/Leaf - Summerghost/mix.wav'
p1597
sg12
F231.80480725623582
sg13
I44100
sbg4
(g5
g6
NtRp1598
(dp1599
g9
I2
sg10
S'/home/ubuntu/DSSGAN/data/valid/Leaf - Summerghost/acc.wav'
p1600
sg12
F231.80480725623582
sg13
I44100
sbg4
(g5
g6
NtRp1601
(dp1602
g9
I2
sg10
S'/home/ubuntu/DSSGAN/data/valid/Leaf - Summerghost/drums.wav'
p1603
sg12
F231.80480725623582
sg13
I44100
sbtp1604
a(g4
(g5
g6
NtRp1605
(dp1606
g9
I2
sg10
S'/home/ubuntu/DSSGAN/data/valid/Secretariat - Over The Top/mix.wav'
p1607
sg12
F250.91482993197278
sg13
I44100
sbg4
(g5
g6
NtRp1608
(dp1609
g9
I2
sg10
S'/home/ubuntu/DSSGAN/data/valid/Secretariat - Over The Top/acc.wav'
p1610
sg12
F250.91482993197278
sg13
I44100
sbg4
(g5
g6
NtRp1611
(dp1612
g9
I2
sg10
S'/home/ubuntu/DSSGAN/data/valid/Secretariat - Over The Top/drums.wav'
p1613
sg12
F250.91482993197278
sg13
I44100
sbtp1614
a(g4
(g5
g6
NtRp1615
(dp1616
g9
I2
sg10
S'/home/ubuntu/DSSGAN/data/valid/James May - Dont Let Go/mix.wav'
p1617
sg12
F241.95192743764173
sg13
I44100
sbg4
(g5
g6
NtRp1618
(dp1619
g9
I2
sg10
S'/home/ubuntu/DSSGAN/data/valid/James May - Dont Let Go/acc.wav'
p1620
sg12
F241.95192743764173
sg13
I44100
sbg4
(g5
g6
NtRp1621
(dp1622
g9
I2
sg10
S'/home/ubuntu/DSSGAN/data/valid/James May - Dont Let Go/drums.wav'
p1623
sg12
F241.95192743764173
sg13
I44100
sbtp1624
a(g4
(g5
g6
NtRp1625
(dp1626
g9
I2
sg10
S'/home/ubuntu/DSSGAN/data/valid/Speak Softly - Broken Man/mix.wav'
p1627
sg12
F252.98140589569161
sg13
I44100
sbg4
(g5
g6
NtRp1628
(dp1629
g9
I2
sg10
S'/home/ubuntu/DSSGAN/data/valid/Speak Softly - Broken Man/acc.wav'
p1630
sg12
F252.98140589569161
sg13
I44100
sbg4
(g5
g6
NtRp1631
(dp1632
g9
I2
sg10
S'/home/ubuntu/DSSGAN/data/valid/Speak Softly - Broken Man/drums.wav'
p1633
sg12
F252.98140589569161
sg13
I44100
sbtp1634
a(g4
(g5
g6
NtRp1635
(dp1636
g9
I2
sg10
S'/home/ubuntu/DSSGAN/data/valid/Young Griffo - Blood To Bone/mix.wav'
p1637
sg12
F254.39782312925169
sg13
I44100
sbg4
(g5
g6
NtRp1638
(dp1639
g9
I2
sg10
S'/home/ubuntu/DSSGAN/data/valid/Young Griffo - Blood To Bone/acc.wav'
p1640
sg12
F254.39782312925169
sg13
I44100
sbg4
(g5
g6
NtRp1641
(dp1642
g9
I2
sg10
S'/home/ubuntu/DSSGAN/data/valid/Young Griffo - Blood To Bone/drums.wav'
p1643
sg12
F254.39782312925169
sg13
I44100
sbtp1644
a(g4
(g5
g6
NtRp1645
(dp1646
g9
I2
sg10
S'/home/ubuntu/DSSGAN/data/valid/Fergessen - Back From The Start/mix.wav'
p1647
sg12
F168.5536507936508
sg13
I44100
sbg4
(g5
g6
NtRp1648
(dp1649
g9
I2
sg10
S'/home/ubuntu/DSSGAN/data/valid/Fergessen - Back From The Start/acc.wav'
p1650
sg12
F168.5536507936508
sg13
I44100
sbg4
(g5
g6
NtRp1651
(dp1652
g9
I2
sg10
S'/home/ubuntu/DSSGAN/data/valid/Fergessen - Back From The Start/drums.wav'
p1653
sg12
F168.5536507936508
sg13
I44100
sbtp1654
a(g4
(g5
g6
NtRp1655
(dp1656
g9
I2
sg10
S'/home/ubuntu/DSSGAN/data/valid/BKS - Bulldozer/mix.wav'
p1657
sg12
F336.85188208616779
sg13
I44100
sbg4
(g5
g6
NtRp1658
(dp1659
g9
I2
sg10
S'/home/ubuntu/DSSGAN/data/valid/BKS - Bulldozer/acc.wav'
p1660
sg12
F336.85188208616779
sg13
I44100
sbg4
(g5
g6
NtRp1661
(dp1662
g9
I2
sg10
S'/home/ubuntu/DSSGAN/data/valid/BKS - Bulldozer/drums.wav'
p1663
sg12
F336.85188208616779
sg13
I44100
sbtp1664
a(g4
(g5
g6
NtRp1665
(dp1666
g9
I2
sg10
S'/home/ubuntu/DSSGAN/data/valid/ANiMAL - Clinic A/mix.wav'
p1667
sg12
F237.86521541950114
sg13
I44100
sbg4
(g5
g6
NtRp1668
(dp1669
g9
I2
sg10
S'/home/ubuntu/DSSGAN/data/valid/ANiMAL - Clinic A/acc.wav'
p1670
sg12
F237.86521541950114
sg13
I44100
sbg4
(g5
g6
NtRp1671
(dp1672
g9
I2
sg10
S'/home/ubuntu/DSSGAN/data/valid/ANiMAL - Clinic A/drums.wav'
p1673
sg12
F237.86521541950114
sg13
I44100
sbtp1674
a(g4
(g5
g6
NtRp1675
(dp1676
g9
I2
sg10
S'/home/ubuntu/DSSGAN/data/valid/ANiMAL - Easy Tiger/mix.wav'
p1677
sg12
F205.47337868480724
sg13
I44100
sbg4
(g5
g6
NtRp1678
(dp1679
g9
I2
sg10
S'/home/ubuntu/DSSGAN/data/valid/ANiMAL - Easy Tiger/acc.wav'
p1680
sg12
F205.47337868480724
sg13
I44100
sbg4
(g5
g6
NtRp1681
(dp1682
g9
I2
sg10
S'/home/ubuntu/DSSGAN/data/valid/ANiMAL - Easy Tiger/drums.wav'
p1683
sg12
F205.47337868480724
sg13
I44100
sbtp1684
a(g4
(g5
g6
NtRp1685
(dp1686
g9
I2
sg10
S'/home/ubuntu/DSSGAN/data/valid/GF_LoftArabica/mix.wav'
p1687
sg12
F228.62367346938777
sg13
I44100
sbg4
(g5
g6
NtRp1688
(dp1689
g9
I2
sg10
S'/home/ubuntu/DSSGAN/data/valid/GF_LoftArabica/acc.wav'
p1690
sg12
F228.62367346938777
sg13
I44100
sbg4
(g5
g6
NtRp1691
(dp1692
g9
I2
sg10
S'/home/ubuntu/DSSGAN/data/valid/GF_LoftArabica/drums.wav'
p1693
sg12
F228.62367346938777
sg13
I44100
sbtp1694
a(g4
(g5
g6
NtRp1695
(dp1696
g9
I1
sg10
S'/home/ubuntu/DSSGAN/data/valid/12/mix.wav'
p1697
sg12
F66
sg13
I44100
sbg4
(g5
g6
NtRp1698
(dp1699
g9
I1
sg10
S'/home/ubuntu/DSSGAN/data/valid/12/acc.wav'
p1700
sg12
F66
sg13
I44100
sbg4
(g5
g6
NtRp1701
(dp1702
g9
I1
sg10
S'/home/ubuntu/DSSGAN/data/valid/12/drums.wav'
p1703
sg12
F66
sg13
I44100
sbtp1704
a(g4
(g5
g6
NtRp1705
(dp1706
g9
I2
sg10
S'/home/ubuntu/DSSGAN/data/valid/Louis Cressy Band - Good Time/mix.wav'
p1707
sg12
F292.64108843537417
sg13
I44100
sbg4
(g5
g6
NtRp1708
(dp1709
g9
I2
sg10
S'/home/ubuntu/DSSGAN/data/valid/Louis Cressy Band - Good Time/acc.wav'
p1710
sg12
F292.64108843537417
sg13
I44100
sbg4
(g5
g6
NtRp1711
(dp1712
g9
I2
sg10
S'/home/ubuntu/DSSGAN/data/valid/Louis Cressy Band - Good Time/drums.wav'
p1713
sg12
F292.64108843537417
sg13
I44100
sbtp1714
a(g4
(g5
g6
NtRp1715
(dp1716
g9
I2
sg10
S'/home/ubuntu/DSSGAN/data/valid/PR - Happy Daze/mix.wav'
p1717
sg12
F162.51646258503402
sg13
I44100
sbg4
(g5
g6
NtRp1718
(dp1719
g9
I2
sg10
S'/home/ubuntu/DSSGAN/data/valid/PR - Happy Daze/acc.wav'
p1720
sg12
F162.51646258503402
sg13
I44100
sbg4
(g5
g6
NtRp1721
(dp1722
g9
I2
sg10
S'/home/ubuntu/DSSGAN/data/valid/PR - Happy Daze/drums.wav'
p1723
sg12
F162.51646258503402
sg13
I44100
sbtp1724
a(g4
(g5
g6
NtRp1725
(dp1726
g9
I2
sg10
S'/home/ubuntu/DSSGAN/data/valid/Patrick Talbot - Set Me Free/mix.wav'
p1727
sg12
F289.78503401360547
sg13
I44100
sbg4
(g5
g6
NtRp1728
(dp1729
g9
I2
sg10
S'/home/ubuntu/DSSGAN/data/valid/Patrick Talbot - Set Me Free/acc.wav'
p1730
sg12
F289.78503401360547
sg13
I44100
sbg4
(g5
g6
NtRp1731
(dp1732
g9
I2
sg10
S'/home/ubuntu/DSSGAN/data/valid/Patrick Talbot - Set Me Free/drums.wav'
p1733
sg12
F289.78503401360547
sg13
I44100
sbtp1734
a(g4
(g5
g6
NtRp1735
(dp1736
g9
I2
sg10
S'/home/ubuntu/DSSGAN/data/valid/Hollow Ground - Ill Fate/mix.wav'
p1737
sg12
F141.47918367346938
sg13
I44100
sbg4
(g5
g6
NtRp1738
(dp1739
g9
I2
sg10
S'/home/ubuntu/DSSGAN/data/valid/Hollow Ground - Ill Fate/acc.wav'
p1740
sg12
F141.47918367346938
sg13
I44100
sbg4
(g5
g6
NtRp1741
(dp1742
g9
I2
sg10
S'/home/ubuntu/DSSGAN/data/valid/Hollow Ground - Ill Fate/drums.wav'
p1743
sg12
F141.47918367346938
sg13
I44100
sbtp1744
a(g4
(g5
g6
NtRp1745
(dp1746
g9
I2
sg10
S'/home/ubuntu/DSSGAN/data/valid/Secretariat - Borderline/mix.wav'
p1747
sg12
F286.65034013605441
sg13
I44100
sbg4
(g5
g6
NtRp1748
(dp1749
g9
I2
sg10
S'/home/ubuntu/DSSGAN/data/valid/Secretariat - Borderline/acc.wav'
p1750
sg12
F286.65034013605441
sg13
I44100
sbg4
(g5
g6
NtRp1751
(dp1752
g9
I2
sg10
S'/home/ubuntu/DSSGAN/data/valid/Secretariat - Borderline/drums.wav'
p1753
sg12
F286.65034013605441
sg13
I44100
sbtp1754
a(g4
(g5
g6
NtRp1755
(dp1756
g9
I1
sg10
S'/home/ubuntu/DSSGAN/data/valid/5/mix.wav'
p1757
sg12
F248.47058956916101
sg13
I44100
sbg4
(g5
g6
NtRp1758
(dp1759
g9
I1
sg10
S'/home/ubuntu/DSSGAN/data/valid/5/acc.wav'
p1760
sg12
F248.47058956916101
sg13
I44100
sbg4
(g5
g6
NtRp1761
(dp1762
g9
I1
sg10
S'/home/ubuntu/DSSGAN/data/valid/5/drums.wav'
p1763
sg12
F248.47058956916101
sg13
I44100
sbtp1764
a(g4
(g5
g6
NtRp1765
(dp1766
g9
I2
sg10
S'/home/ubuntu/DSSGAN/data/valid/Triviul - Angelsaint/mix.wav'
p1767
sg12
F236.70421768707482
sg13
I44100
sbg4
(g5
g6
NtRp1768
(dp1769
g9
I2
sg10
S'/home/ubuntu/DSSGAN/data/valid/Triviul - Angelsaint/acc.wav'
p1770
sg12
F236.70421768707482
sg13
I44100
sbg4
(g5
g6
NtRp1771
(dp1772
g9
I2
sg10
S'/home/ubuntu/DSSGAN/data/valid/Triviul - Angelsaint/drums.wav'
p1773
sg12
F236.70421768707482
sg13
I44100
sbtp1774
a(g4
(g5
g6
NtRp1775
(dp1776
g9
I2
sg10
S'/home/ubuntu/DSSGAN/data/valid/Traffic Experiment - Once More (With Feeling)/mix.wav'
p1777
sg12
F435.07229024943308
sg13
I44100
sbg4
(g5
g6
NtRp1778
(dp1779
g9
I2
sg10
S'/home/ubuntu/DSSGAN/data/valid/Traffic Experiment - Once More (With Feeling)/acc.wav'
p1780
sg12
F435.07229024943308
sg13
I44100
sbg4
(g5
g6
NtRp1781
(dp1782
g9
I2
sg10
S'/home/ubuntu/DSSGAN/data/valid/Traffic Experiment - Once More (With Feeling)/drums.wav'
p1783
sg12
F435.07229024943308
sg13
I44100
sbtp1784
a(g4
(g5
g6
NtRp1785
(dp1786
g9
I2
sg10
S'/home/ubuntu/DSSGAN/data/valid/BKS - Too Much/mix.wav'
p1787
sg12
F219.93941043083899
sg13
I44100
sbg4
(g5
g6
NtRp1788
(dp1789
g9
I2
sg10
S'/home/ubuntu/DSSGAN/data/valid/BKS - Too Much/acc.wav'
p1790
sg12
F219.93941043083899
sg13
I44100
sbg4
(g5
g6
NtRp1791
(dp1792
g9
I2
sg10
S'/home/ubuntu/DSSGAN/data/valid/BKS - Too Much/drums.wav'
p1793
sg12
F219.93941043083899
sg13
I44100
sbtp1794
a(g4
(g5
g6
NtRp1795
(dp1796
g9
I2
sg10
S'/home/ubuntu/DSSGAN/data/valid/AFL_StarryMonkey/mix.wav'
p1797
sg12
F188.10485260770974
sg13
I44100
sbg4
(g5
g6
NtRp1798
(dp1799
g9
I2
sg10
S'/home/ubuntu/DSSGAN/data/valid/AFL_StarryMonkey/acc.wav'
p1800
sg12
F188.10485260770974
sg13
I44100
sbg4
(g5
g6
NtRp1801
(dp1802
g9
I2
sg10
S'/home/ubuntu/DSSGAN/data/valid/AFL_StarryMonkey/drums.wav'
p1803
sg12
F188.10485260770974
sg13
I44100
sbtp1804
a(g4
(g5
g6
NtRp1805
(dp1806
g9
I2
sg10
S'/home/ubuntu/DSSGAN/data/valid/Music Delta - Gospel/mix.wav'
p1807
sg12
F75.557732426303858
sg13
I44100
sbg4
(g5
g6
NtRp1808
(dp1809
g9
I2
sg10
S'/home/ubuntu/DSSGAN/data/valid/Music Delta - Gospel/acc.wav'
p1810
sg12
F75.557732426303858
sg13
I44100
sbg4
(g5
g6
NtRp1811
(dp1812
g9
I2
sg10
S'/home/ubuntu/DSSGAN/data/valid/Music Delta - Gospel/drums.wav'
p1813
sg12
F75.557732426303858
sg13
I44100
sbtp1814
a(g4
(g5
g6
NtRp1815
(dp1816
g9
I2
sg10
S'/home/ubuntu/DSSGAN/data/valid/Meaxic - Take A Step/mix.wav'
p1817
sg12
F282.5171882086168
sg13
I44100
sbg4
(g5
g6
NtRp1818
(dp1819
g9
I2
sg10
S'/home/ubuntu/DSSGAN/data/valid/Meaxic - Take A Step/acc.wav'
p1820
sg12
F282.5171882086168
sg13
I44100
sbg4
(g5
g6
NtRp1821
(dp1822
g9
I2
sg10
S'/home/ubuntu/DSSGAN/data/valid/Meaxic - Take A Step/drums.wav'
p1823
sg12
F282.5171882086168
sg13
I44100
sbtp1824
a(g4
(g5
g6
NtRp1825
(dp1826
g9
I2
sg10
S'/home/ubuntu/DSSGAN/data/valid/HR_StutterStep/mix.wav'
p1827
sg12
F204.19628117913831
sg13
I44100
sbg4
(g5
g6
NtRp1828
(dp1829
g9
I2
sg10
S'/home/ubuntu/DSSGAN/data/valid/HR_StutterStep/acc.wav'
p1830
sg12
F204.19628117913831
sg13
I44100
sbg4
(g5
g6
NtRp1831
(dp1832
g9
I2
sg10
S'/home/ubuntu/DSSGAN/data/valid/HR_StutterStep/drums.wav'
p1833
sg12
F204.19628117913831
sg13
I44100
sbtp1834
a(g4
(g5
g6
NtRp1835
(dp1836
g9
I2
sg10
S'/home/ubuntu/DSSGAN/data/valid/James May - If You Say/mix.wav'
p1837
sg12
F258.32199546485259
sg13
I44100
sbg4
(g5
g6
NtRp1838
(dp1839
g9
I2
sg10
S'/home/ubuntu/DSSGAN/data/valid/James May - If You Say/acc.wav'
p1840
sg12
F258.32199546485259
sg13
I44100
sbg4
(g5
g6
NtRp1841
(dp1842
g9
I2
sg10
S'/home/ubuntu/DSSGAN/data/valid/James May - If You Say/drums.wav'
p1843
sg12
F258.32199546485259
sg13
I44100
sbtp1844
a(g4
(g5
g6
NtRp1845
(dp1846
g9
I2
sg10
S'/home/ubuntu/DSSGAN/data/valid/Timboz - Pony/mix.wav'
p1847
sg12
F252.86530612244897
sg13
I44100
sbg4
(g5
g6
NtRp1848
(dp1849
g9
I2
sg10
S'/home/ubuntu/DSSGAN/data/valid/Timboz - Pony/acc.wav'
p1850
sg12
F252.86530612244897
sg13
I44100
sbg4
(g5
g6
NtRp1851
(dp1852
g9
I2
sg10
S'/home/ubuntu/DSSGAN/data/valid/Timboz - Pony/drums.wav'
p1853
sg12
F252.86530612244897
sg13
I44100
sbtp1854
a(g4
(g5
g6
NtRp1855
(dp1856
g9
I2
sg10
S'/home/ubuntu/DSSGAN/data/valid/Young Griffo - Facade/mix.wav'
p1857
sg12
F167.857052154195
sg13
I44100
sbg4
(g5
g6
NtRp1858
(dp1859
g9
I2
sg10
S'/home/ubuntu/DSSGAN/data/valid/Young Griffo - Facade/acc.wav'
p1860
sg12
F167.857052154195
sg13
I44100
sbg4
(g5
g6
NtRp1861
(dp1862
g9
I2
sg10
S'/home/ubuntu/DSSGAN/data/valid/Young Griffo - Facade/drums.wav'
p1863
sg12
F167.857052154195
sg13
I44100
sbtp1864
a(g4
(g5
g6
NtRp1865
(dp1866
g9
I2
sg10
S'/home/ubuntu/DSSGAN/data/valid/GK_LightsOut/mix.wav'
p1867
sg12
F240.04789115646258
sg13
I44100
sbg4
(g5
g6
NtRp1868
(dp1869
g9
I2
sg10
S'/home/ubuntu/DSSGAN/data/valid/GK_LightsOut/acc.wav'
p1870
sg12
F240.04789115646258
sg13
I44100
sbg4
(g5
g6
NtRp1871
(dp1872
g9
I2
sg10
S'/home/ubuntu/DSSGAN/data/valid/GK_LightsOut/drums.wav'
p1873
sg12
F240.04789115646258
sg13
I44100
sbtp1874
a(g4
(g5
g6
NtRp1875
(dp1876
g9
I2
sg10
S'/home/ubuntu/DSSGAN/data/valid/The Easton Ellises - Falcon 69/mix.wav'
p1877
sg12
F246.80489795918368
sg13
I44100
sbg4
(g5
g6
NtRp1878
(dp1879
g9
I2
sg10
S'/home/ubuntu/DSSGAN/data/valid/The Easton Ellises - Falcon 69/acc.wav'
p1880
sg12
F246.80489795918368
sg13
I44100
sbg4
(g5
g6
NtRp1881
(dp1882
g9
I2
sg10
S'/home/ubuntu/DSSGAN/data/valid/The Easton Ellises - Falcon 69/drums.wav'
p1883
sg12
F246.80489795918368
sg13
I44100
sbtp1884
a(g4
(g5
g6
NtRp1885
(dp1886
g9
I2
sg10
S'/home/ubuntu/DSSGAN/data/valid/PR_ThisFeeling/mix.wav'
p1887
sg12
F173.17442176870748
sg13
I44100
sbg4
(g5
g6
NtRp1888
(dp1889
g9
I2
sg10
S'/home/ubuntu/DSSGAN/data/valid/PR_ThisFeeling/acc.wav'
p1890
sg12
F173.17442176870748
sg13
I44100
sbg4
(g5
g6
NtRp1891
(dp1892
g9
I2
sg10
S'/home/ubuntu/DSSGAN/data/valid/PR_ThisFeeling/drums.wav'
p1893
sg12
F173.17442176870748
sg13
I44100
sbtp1894
a(g4
(g5
g6
NtRp1895
(dp1896
g9
I2
sg10
S'/home/ubuntu/DSSGAN/data/valid/Clara Berry And Wooldog - Waltz For My Victims/mix.wav'
p1897
sg12
F175.24099773242631
sg13
I44100
sbg4
(g5
g6
NtRp1898
(dp1899
g9
I2
sg10
S'/home/ubuntu/DSSGAN/data/valid/Clara Berry And Wooldog - Waltz For My Victims/acc.wav'
p1900
sg12
F175.24099773242631
sg13
I44100
sbg4
(g5
g6
NtRp1901
(dp1902
g9
I2
sg10
S'/home/ubuntu/DSSGAN/data/valid/Clara Berry And Wooldog - Waltz For My Victims/drums.wav'
p1903
sg12
F175.24099773242631
sg13
I44100
sbtp1904
a(g4
(g5
g6
NtRp1905
(dp1906
g9
I1
sg10
S'/home/ubuntu/DSSGAN/data/valid/9/mix.wav'
p1907
sg12
F11.428571428571429
sg13
I44100
sbg4
(g5
g6
NtRp1908
(dp1909
g9
I1
sg10
S'/home/ubuntu/DSSGAN/data/valid/9/acc.wav'
p1910
sg12
F11.428571428571429
sg13
I44100
sbg4
(g5
g6
NtRp1911
(dp1912
g9
I1
sg10
S'/home/ubuntu/DSSGAN/data/valid/9/drums.wav'
p1913
sg12
F11.428571428571429
sg13
I44100
sbtp1914
a(g4
(g5
g6
NtRp1915
(dp1916
g9
I2
sg10
S'/home/ubuntu/DSSGAN/data/valid/PH_Hornet2000/mix.wav'
p1917
sg12
F180.76734693877552
sg13
I44100
sbg4
(g5
g6
NtRp1918
(dp1919
g9
I2
sg10
S'/home/ubuntu/DSSGAN/data/valid/PH_Hornet2000/acc.wav'
p1920
sg12
F180.76734693877552
sg13
I44100
sbg4
(g5
g6
NtRp1921
(dp1922
g9
I2
sg10
S'/home/ubuntu/DSSGAN/data/valid/PH_Hornet2000/drums.wav'
p1923
sg12
F180.76734693877552
sg13
I44100
sbtp1924
a(g4
(g5
g6
NtRp1925
(dp1926
g9
I2
sg10
S'/home/ubuntu/DSSGAN/data/valid/NR_Trovinsky/mix.wav'
p1927
sg12
F262.06040816326532
sg13
I44100
sbg4
(g5
g6
NtRp1928
(dp1929
g9
I2
sg10
S'/home/ubuntu/DSSGAN/data/valid/NR_Trovinsky/acc.wav'
p1930
sg12
F262.06040816326532
sg13
I44100
sbg4
(g5
g6
NtRp1931
(dp1932
g9
I2
sg10
S'/home/ubuntu/DSSGAN/data/valid/NR_Trovinsky/drums.wav'
p1933
sg12
F262.06040816326532
sg13
I44100
sbtp1934
a(g4
(g5
g6
NtRp1935
(dp1936
g9
I2
sg10
S'/home/ubuntu/DSSGAN/data/valid/AA_ArtificialIntelligence/mix.wav'
p1937
sg12
F212.6251247165533
sg13
I44100
sbg4
(g5
g6
NtRp1938
(dp1939
g9
I2
sg10
S'/home/ubuntu/DSSGAN/data/valid/AA_ArtificialIntelligence/acc.wav'
p1940
sg12
F212.6251247165533
sg13
I44100
sbg4
(g5
g6
NtRp1941
(dp1942
g9
I2
sg10
S'/home/ubuntu/DSSGAN/data/valid/AA_ArtificialIntelligence/drums.wav'
p1943
sg12
F212.6251247165533
sg13
I44100
sbtp1944
a(g4
(g5
g6
NtRp1945
(dp1946
g9
I2
sg10
S'/home/ubuntu/DSSGAN/data/valid/VH_Blith/mix.wav'
p1947
sg12
F149.55972789115646
sg13
I44100
sbg4
(g5
g6
NtRp1948
(dp1949
g9
I2
sg10
S'/home/ubuntu/DSSGAN/data/valid/VH_Blith/acc.wav'
p1950
sg12
F149.55972789115646
sg13
I44100
sbg4
(g5
g6
NtRp1951
(dp1952
g9
I2
sg10
S'/home/ubuntu/DSSGAN/data/valid/VH_Blith/drums.wav'
p1953
sg12
F149.55972789115646
sg13
I44100
sbtp1954
a(g4
(g5
g6
NtRp1955
(dp1956
g9
I2
sg10
S'/home/ubuntu/DSSGAN/data/valid/Fergessen - Nos Palpitants/mix.wav'
p1957
sg12
F198.22875283446712
sg13
I44100
sbg4
(g5
g6
NtRp1958
(dp1959
g9
I2
sg10
S'/home/ubuntu/DSSGAN/data/valid/Fergessen - Nos Palpitants/acc.wav'
p1960
sg12
F198.22875283446712
sg13
I44100
sbg4
(g5
g6
NtRp1961
(dp1962
g9
I2
sg10
S'/home/ubuntu/DSSGAN/data/valid/Fergessen - Nos Palpitants/drums.wav'
p1963
sg12
F198.22875283446712
sg13
I44100
sbtp1964
a(g4
(g5
g6
NtRp1965
(dp1966
g9
I2
sg10
S'/home/ubuntu/DSSGAN/data/valid/Cristina Vane - So Easy/mix.wav'
p1967
sg12
F253.95664399092971
sg13
I44100
sbg4
(g5
g6
NtRp1968
(dp1969
g9
I2
sg10
S'/home/ubuntu/DSSGAN/data/valid/Cristina Vane - So Easy/acc.wav'
p1970
sg12
F253.95664399092971
sg13
I44100
sbg4
(g5
g6
NtRp1971
(dp1972
g9
I2
sg10
S'/home/ubuntu/DSSGAN/data/valid/Cristina Vane - So Easy/drums.wav'
p1973
sg12
F253.95664399092971
sg13
I44100
sbtp1974
a(g4
(g5
g6
NtRp1975
(dp1976
g9
I1
sg10
S'/home/ubuntu/DSSGAN/data/valid/1/mix.wav'
p1977
sg12
F184.6156462585034
sg13
I44100
sbg4
(g5
g6
NtRp1978
(dp1979
g9
I1
sg10
S'/home/ubuntu/DSSGAN/data/valid/1/acc.wav'
p1980
sg12
F184.6156462585034
sg13
I44100
sbg4
(g5
g6
NtRp1981
(dp1982
g9
I1
sg10
S'/home/ubuntu/DSSGAN/data/valid/1/drums.wav'
p1983
sg12
F184.6156462585034
sg13
I44100
sbtp1984
a(g4
(g5
g6
NtRp1985
(dp1986
g9
I2
sg10
S'/home/ubuntu/DSSGAN/data/valid/Arise - Run Run Run/mix.wav'
p1987
sg12
F219.19637188208617
sg13
I44100
sbg4
(g5
g6
NtRp1988
(dp1989
g9
I2
sg10
S'/home/ubuntu/DSSGAN/data/valid/Arise - Run Run Run/acc.wav'
p1990
sg12
F219.19637188208617
sg13
I44100
sbg4
(g5
g6
NtRp1991
(dp1992
g9
I2
sg10
S'/home/ubuntu/DSSGAN/data/valid/Arise - Run Run Run/drums.wav'
p1993
sg12
F219.19637188208617
sg13
I44100
sbtp1994
a(g4
(g5
g6
NtRp1995
(dp1996
g9
I2
sg10
S'/home/ubuntu/DSSGAN/data/valid/LM_StockholmSyndrome/mix.wav'
p1997
sg12
F198.80925170068028
sg13
I44100
sbg4
(g5
g6
NtRp1998
(dp1999
g9
I2
sg10
S'/home/ubuntu/DSSGAN/data/valid/LM_StockholmSyndrome/acc.wav'
p2000
sg12
F198.80925170068028
sg13
I44100
sbg4
(g5
g6
NtRp2001
(dp2002
g9
I2
sg10
S'/home/ubuntu/DSSGAN/data/valid/LM_StockholmSyndrome/drums.wav'
p2003
sg12
F198.80925170068028
sg13
I44100
sbtp2004
asS'train_unsup'
p2005
(lp2006
(lp2007
g4
(g5
g6
NtRp2008
(dp2009
g9
I2
sg10
S'/home/ubuntu/DSSGAN/data/train_unsup/unsup_mix/mix_80.wav'
p2010
sg12
F277.71437641723355
sg13
I44100
sbag4
(g5
g6
NtRp2011
(dp2012
g9
I2
sg10
S'/home/ubuntu/DSSGAN/data/train_unsup/unsup_mix/mix_134.wav'
p2013
sg12
F385.05049886621316
sg13
I44100
sbag4
(g5
g6
NtRp2014
(dp2015
g9
I2
sg10
S'/home/ubuntu/DSSGAN/data/train_unsup/unsup_mix/mix_5.wav'
p2016
sg12
F437.15603174603177
sg13
I44100
sbag4
(g5
g6
NtRp2017
(dp2018
g9
I2
sg10
S'/home/ubuntu/DSSGAN/data/train_unsup/unsup_mix/mix_52.wav'
p2019
sg12
F417.42770975056692
sg13
I44100
sbag4
(g5
g6
NtRp2020
(dp2021
g9
I2
sg10
S'/home/ubuntu/DSSGAN/data/train_unsup/unsup_mix/mix_117.wav'
p2022
sg12
F318.14916099773245
sg13
I44100
sbag4
(g5
g6
NtRp2023
(dp2024
g9
I2
sg10
S'/home/ubuntu/DSSGAN/data/train_unsup/unsup_mix/mix_124.wav'
p2025
sg12
F433.11947845804991
sg13
I44100
sbag4
(g5
g6
NtRp2026
(dp2027
g9
I2
sg10
S'/home/ubuntu/DSSGAN/data/train_unsup/unsup_mix/mix_146.wav'
p2028
sg12
F493.97727891156461
sg13
I44100
sbag4
(g5
g6
NtRp2029
(dp2030
g9
I2
sg10
S'/home/ubuntu/DSSGAN/data/train_unsup/unsup_mix/mix_46.wav'
p2031
sg12
F230.9892970521542
sg13
I44100
sbag4
(g5
g6
NtRp2032
(dp2033
g9
I2
sg10
S'/home/ubuntu/DSSGAN/data/train_unsup/unsup_mix/mix_115.wav'
p2034
sg12
F394.46052154195013
sg13
I44100
sbag4
(g5
g6
NtRp2035
(dp2036
g9
I2
sg10
S'/home/ubuntu/DSSGAN/data/train_unsup/unsup_mix/mix_40.wav'
p2037
sg12
F326.70666666666665
sg13
I44100
sbag4
(g5
g6
NtRp2038
(dp2039
g9
I2
sg10
S'/home/ubuntu/DSSGAN/data/train_unsup/unsup_mix/mix_137.wav'
p2040
sg12
F285.90666666666669
sg13
I44100
sbag4
(g5
g6
NtRp2041
(dp2042
g9
I2
sg10
S'/home/ubuntu/DSSGAN/data/train_unsup/unsup_mix/mix_163.wav'
p2043
sg12
F416.64079365079363
sg13
I44100
sbag4
(g5
g6
NtRp2044
(dp2045
g9
I2
sg10
S'/home/ubuntu/DSSGAN/data/train_unsup/unsup_mix/mix_9.wav'
p2046
sg12
F196.05333333333334
sg13
I44100
sbag4
(g5
g6
NtRp2047
(dp2048
g9
I2
sg10
S'/home/ubuntu/DSSGAN/data/train_unsup/unsup_mix/mix_172.wav'
p2049
sg12
F312.81530612244899
sg13
I44100
sbag4
(g5
g6
NtRp2050
(dp2051
g9
I2
sg10
S'/home/ubuntu/DSSGAN/data/train_unsup/unsup_mix/mix_157.wav'
p2052
sg12
F443.58233560090702
sg13
I44100
sbag4
(g5
g6
NtRp2053
(dp2054
g9
I2
sg10
S'/home/ubuntu/DSSGAN/data/train_unsup/unsup_mix/mix_155.wav'
p2055
sg12
F256.36000000000001
sg13
I44100
sbag4
(g5
g6
NtRp2056
(dp2057
g9
I2
sg10
S'/home/ubuntu/DSSGAN/data/train_unsup/unsup_mix/mix_58.wav'
p2058
sg12
F498.79335600907029
sg13
I44100
sbag4
(g5
g6
NtRp2059
(dp2060
g9
I2
sg10
S'/home/ubuntu/DSSGAN/data/train_unsup/unsup_mix/mix_36.wav'
p2061
sg12
F230.91999999999999
sg13
I44100
sbag4
(g5
g6
NtRp2062
(dp2063
g9
I2
sg10
S'/home/ubuntu/DSSGAN/data/train_unsup/unsup_mix/mix_20.wav'
p2064
sg12
F320.85333333333335
sg13
I44100
sbag4
(g5
g6
NtRp2065
(dp2066
g9
I2
sg10
S'/home/ubuntu/DSSGAN/data/train_unsup/unsup_mix/mix_170.wav'
p2067
sg12
F493.4678911564626
sg13
I44100
sbag4
(g5
g6
NtRp2068
(dp2069
g9
I2
sg10
S'/home/ubuntu/DSSGAN/data/train_unsup/unsup_mix/mix_141.wav'
p2070
sg12
F334.14573696145123
sg13
I44100
sbag4
(g5
g6
NtRp2071
(dp2072
g9
I2
sg10
S'/home/ubuntu/DSSGAN/data/train_unsup/unsup_mix/mix_23.wav'
p2073
sg12
F282.76392290249436
sg13
I44100
sbag4
(g5
g6
NtRp2074
(dp2075
g9
I2
sg10
S'/home/ubuntu/DSSGAN/data/train_unsup/unsup_mix/mix_154.wav'
p2076
sg12
F292.22929705215421
sg13
I44100
sbag4
(g5
g6
NtRp2077
(dp2078
g9
I2
sg10
S'/home/ubuntu/DSSGAN/data/train_unsup/unsup_mix/mix_72.wav'
p2079
sg12
F509.22671201814057
sg13
I44100
sbag4
(g5
g6
NtRp2080
(dp2081
g9
I2
sg10
S'/home/ubuntu/DSSGAN/data/train_unsup/unsup_mix/mix_106.wav'
p2082
sg12
F166.68000000000001
sg13
I44100
sbag4
(g5
g6
NtRp2083
(dp2084
g9
I2
sg10
S'/home/ubuntu/DSSGAN/data/train_unsup/unsup_mix/mix_66.wav'
p2085
sg12
F278.61333333333334
sg13
I44100
sbag4
(g5
g6
NtRp2086
(dp2087
g9
I2
sg10
S'/home/ubuntu/DSSGAN/data/train_unsup/unsup_mix/mix_94.wav'
p2088
sg12
F206.30666666666667
sg13
I44100
sbag4
(g5
g6
NtRp2089
(dp2090
g9
I2
sg10
S'/home/ubuntu/DSSGAN/data/train_unsup/unsup_mix/mix_79.wav'
p2091
sg12
F342.25471655328801
sg13
I44100
sbag4
(g5
g6
NtRp2092
(dp2093
g9
I2
sg10
S'/home/ubuntu/DSSGAN/data/train_unsup/unsup_mix/mix_100.wav'
p2094
sg12
F297.18022675736961
sg13
I44100
sbag4
(g5
g6
NtRp2095
(dp2096
g9
I2
sg10
S'/home/ubuntu/DSSGAN/data/train_unsup/unsup_mix/mix_62.wav'
p2097
sg12
F358.55655328798184
sg13
I44100
sbag4
(g5
g6
NtRp2098
(dp2099
g9
I2
sg10
S'/home/ubuntu/DSSGAN/data/train_unsup/unsup_mix/mix_59.wav'
p2100
sg12
F496.11521541950111
sg13
I44100
sbag4
(g5
g6
NtRp2101
(dp2102
g9
I2
sg10
S'/home/ubuntu/DSSGAN/data/train_unsup/unsup_mix/mix_90.wav'
p2103
sg12
F218.31999999999999
sg13
I44100
sbag4
(g5
g6
NtRp2104
(dp2105
g9
I2
sg10
S'/home/ubuntu/DSSGAN/data/train_unsup/unsup_mix/mix_93.wav'
p2106
sg12
F383.95310657596372
sg13
I44100
sbag4
(g5
g6
NtRp2107
(dp2108
g9
I2
sg10
S'/home/ubuntu/DSSGAN/data/train_unsup/unsup_mix/mix_22.wav'
p2109
sg12
F212.05287981859411
sg13
I44100
sbag4
(g5
g6
NtRp2110
(dp2111
g9
I2
sg10
S'/home/ubuntu/DSSGAN/data/train_unsup/unsup_mix/mix_139.wav'
p2112
sg12
F840.15020408163264
sg13
I44100
sbag4
(g5
g6
NtRp2113
(dp2114
g9
I2
sg10
S'/home/ubuntu/DSSGAN/data/train_unsup/unsup_mix/mix_61.wav'
p2115
sg12
F309.7893424036281
sg13
I44100
sbag4
(g5
g6
NtRp2116
(dp2117
g9
I2
sg10
S'/home/ubuntu/DSSGAN/data/train_unsup/unsup_mix/mix_95.wav'
p2118
sg12
F368.63999999999999
sg13
I44100
sbag4
(g5
g6
NtRp2119
(dp2120
g9
I2
sg10
S'/home/ubuntu/DSSGAN/data/train_unsup/unsup_mix/mix_85.wav'
p2121
sg12
F160.31999999999999
sg13
I44100
sbag4
(g5
g6
NtRp2122
(dp2123
g9
I2
sg10
S'/home/ubuntu/DSSGAN/data/train_unsup/unsup_mix/mix_118.wav'
p2124
sg12
F306.36000000000001
sg13
I44100
sbag4
(g5
g6
NtRp2125
(dp2126
g9
I2
sg10
S'/home/ubuntu/DSSGAN/data/train_unsup/unsup_mix/mix_119.wav'
p2127
sg12
F374.15183673469386
sg13
I44100
sbag4
(g5
g6
NtRp2128
(dp2129
g9
I2
sg10
S'/home/ubuntu/DSSGAN/data/train_unsup/unsup_mix/mix_87.wav'
p2130
sg12
F507.81551020408165
sg13
I44100
sbag4
(g5
g6
NtRp2131
(dp2132
g9
I1
sg10
S'/home/ubuntu/DSSGAN/data/train_unsup/unsup_mix/mix_24.wav'
p2133
sg12
F329.14285714285717
sg13
I44100
sbag4
(g5
g6
NtRp2134
(dp2135
g9
I2
sg10
S'/home/ubuntu/DSSGAN/data/train_unsup/unsup_mix/mix_56.wav'
p2136
sg12
F231.85333333333332
sg13
I44100
sbag4
(g5
g6
NtRp2137
(dp2138
g9
I2
sg10
S'/home/ubuntu/DSSGAN/data/train_unsup/unsup_mix/mix_68.wav'
p2139
sg12
F430.51326530612243
sg13
I44100
sbag4
(g5
g6
NtRp2140
(dp2141
g9
I2
sg10
S'/home/ubuntu/DSSGAN/data/train_unsup/unsup_mix/mix_65.wav'
p2142
sg12
F436
sg13
I44100
sbag4
(g5
g6
NtRp2143
(dp2144
g9
I2
sg10
S'/home/ubuntu/DSSGAN/data/train_unsup/unsup_mix/mix_99.wav'
p2145
sg12
F257.72517006802724
sg13
I44100
sbag4
(g5
g6
NtRp2146
(dp2147
g9
I2
sg10
S'/home/ubuntu/DSSGAN/data/train_unsup/unsup_mix/mix_138.wav'
p2148
sg12
F327.57335600907027
sg13
I44100
sbag4
(g5
g6
NtRp2149
(dp2150
g9
I2
sg10
S'/home/ubuntu/DSSGAN/data/train_unsup/unsup_mix/mix_84.wav'
p2151
sg12
F391.06541950113376
sg13
I44100
sbag4
(g5
g6
NtRp2152
(dp2153
g9
I2
sg10
S'/home/ubuntu/DSSGAN/data/train_unsup/unsup_mix/mix_122.wav'
p2154
sg12
F240.02666666666667
sg13
I44100
sbag4
(g5
g6
NtRp2155
(dp2156
g9
I2
sg10
S'/home/ubuntu/DSSGAN/data/train_unsup/unsup_mix/mix_150.wav'
p2157
sg12
F270.29000000000002
sg13
I44100
sbag4
(g5
g6
NtRp2158
(dp2159
g9
I2
sg10
S'/home/ubuntu/DSSGAN/data/train_unsup/unsup_mix/mix_53.wav'
p2160
sg12
F400.88
sg13
I44100
sbag4
(g5
g6
NtRp2161
(dp2162
g9
I2
sg10
S'/home/ubuntu/DSSGAN/data/train_unsup/unsup_mix/mix_51.wav'
p2163
sg12
F478.24739229024942
sg13
I44100
sbag4
(g5
g6
NtRp2164
(dp2165
g9
I2
sg10
S'/home/ubuntu/DSSGAN/data/train_unsup/unsup_mix/mix_37.wav'
p2166
sg12
F251.32950113378683
sg13
I44100
sbag4
(g5
g6
NtRp2167
(dp2168
g9
I2
sg10
S'/home/ubuntu/DSSGAN/data/train_unsup/unsup_mix/mix_149.wav'
p2169
sg12
F310.46666666666664
sg13
I44100
sbag4
(g5
g6
NtRp2170
(dp2171
g9
I2
sg10
S'/home/ubuntu/DSSGAN/data/train_unsup/unsup_mix/mix_4.wav'
p2172
sg12
F281.44326530612244
sg13
I44100
sbag4
(g5
g6
NtRp2173
(dp2174
g9
I2
sg10
S'/home/ubuntu/DSSGAN/data/train_unsup/unsup_mix/mix_112.wav'
p2175
sg12
F252.29376417233561
sg13
I44100
sbag4
(g5
g6
NtRp2176
(dp2177
g9
I2
sg10
S'/home/ubuntu/DSSGAN/data/train_unsup/unsup_mix/mix_127.wav'
p2178
sg12
F344.47061224489795
sg13
I44100
sbag4
(g5
g6
NtRp2179
(dp2180
g9
I2
sg10
S'/home/ubuntu/DSSGAN/data/train_unsup/unsup_mix/mix_144.wav'
p2181
sg12
F399.02666666666664
sg13
I44100
sbag4
(g5
g6
NtRp2182
(dp2183
g9
I2
sg10
S'/home/ubuntu/DSSGAN/data/train_unsup/unsup_mix/mix_47.wav'
p2184
sg12
F439.53380952380951
sg13
I44100
sbag4
(g5
g6
NtRp2185
(dp2186
g9
I2
sg10
S'/home/ubuntu/DSSGAN/data/train_unsup/unsup_mix/mix_125.wav'
p2187
sg12
F339.56916099773241
sg13
I44100
sbag4
(g5
g6
NtRp2188
(dp2189
g9
I2
sg10
S'/home/ubuntu/DSSGAN/data/train_unsup/unsup_mix/mix_101.wav'
p2190
sg12
F160.06666666666666
sg13
I44100
sbag4
(g5
g6
NtRp2191
(dp2192
g9
I2
sg10
S'/home/ubuntu/DSSGAN/data/train_unsup/unsup_mix/mix_8.wav'
p2193
sg12
F545.84331065759636
sg13
I44100
sbag4
(g5
g6
NtRp2194
(dp2195
g9
I2
sg10
S'/home/ubuntu/DSSGAN/data/train_unsup/unsup_mix/mix_63.wav'
p2196
sg12
F301
sg13
I44100
sbag4
(g5
g6
NtRp2197
(dp2198
g9
I2
sg10
S'/home/ubuntu/DSSGAN/data/train_unsup/unsup_mix/mix_109.wav'
p2199
sg12
F283
sg13
I44100
sbag4
(g5
g6
NtRp2200
(dp2201
g9
I2
sg10
S'/home/ubuntu/DSSGAN/data/train_unsup/unsup_mix/mix_158.wav'
p2202
sg12
F172.80000000000001
sg13
I44100
sbag4
(g5
g6
NtRp2203
(dp2204
g9
I2
sg10
S'/home/ubuntu/DSSGAN/data/train_unsup/unsup_mix/mix_76.wav'
p2205
sg12
F176.36308390022677
sg13
I44100
sbag4
(g5
g6
NtRp2206
(dp2207
g9
I2
sg10
S'/home/ubuntu/DSSGAN/data/train_unsup/unsup_mix/mix_145.wav'
p2208
sg12
F446.55739229024942
sg13
I44100
sbag4
(g5
g6
NtRp2209
(dp2210
g9
I2
sg10
S'/home/ubuntu/DSSGAN/data/train_unsup/unsup_mix/mix_28.wav'
p2211
sg12
F241.45353741496598
sg13
I44100
sbag4
(g5
g6
NtRp2212
(dp2213
g9
I2
sg10
S'/home/ubuntu/DSSGAN/data/train_unsup/unsup_mix/mix_161.wav'
p2214
sg12
F346.62356009070294
sg13
I44100
sbag4
(g5
g6
NtRp2215
(dp2216
g9
I2
sg10
S'/home/ubuntu/DSSGAN/data/train_unsup/unsup_mix/mix_25.wav'
p2217
sg12
F242.16
sg13
I44100
sbag4
(g5
g6
NtRp2218
(dp2219
g9
I2
sg10
S'/home/ubuntu/DSSGAN/data/train_unsup/unsup_mix/mix_64.wav'
p2220
sg12
F295.19954648526078
sg13
I44100
sbag4
(g5
g6
NtRp2221
(dp2222
g9
I2
sg10
S'/home/ubuntu/DSSGAN/data/train_unsup/unsup_mix/mix_21.wav'
p2223
sg12
F180
sg13
I44100
sbag4
(g5
g6
NtRp2224
(dp2225
g9
I2
sg10
S'/home/ubuntu/DSSGAN/data/train_unsup/unsup_mix/mix_133.wav'
p2226
sg12
F308.63780045351473
sg13
I44100
sbag4
(g5
g6
NtRp2227
(dp2228
g9
I2
sg10
S'/home/ubuntu/DSSGAN/data/train_unsup/unsup_mix/mix_113.wav'
p2229
sg12
F364.85333333333335
sg13
I44100
sbag4
(g5
g6
NtRp2230
(dp2231
g9
I2
sg10
S'/home/ubuntu/DSSGAN/data/train_unsup/unsup_mix/mix_98.wav'
p2232
sg12
F326.70666666666665
sg13
I44100
sbag4
(g5
g6
NtRp2233
(dp2234
g9
I2
sg10
S'/home/ubuntu/DSSGAN/data/train_unsup/unsup_mix/mix_14.wav'
p2235
sg12
F208.03918367346938
sg13
I44100
sbag4
(g5
g6
NtRp2236
(dp2237
g9
I2
sg10
S'/home/ubuntu/DSSGAN/data/train_unsup/unsup_mix/mix_57.wav'
p2238
sg12
F385.01142857142855
sg13
I44100
sbag4
(g5
g6
NtRp2239
(dp2240
g9
I2
sg10
S'/home/ubuntu/DSSGAN/data/train_unsup/unsup_mix/mix_103.wav'
p2241
sg12
F362.79585034013604
sg13
I44100
sbag4
(g5
g6
NtRp2242
(dp2243
g9
I2
sg10
S'/home/ubuntu/DSSGAN/data/train_unsup/unsup_mix/mix_159.wav'
p2244
sg12
F544
sg13
I44100
sbag4
(g5
g6
NtRp2245
(dp2246
g9
I2
sg10
S'/home/ubuntu/DSSGAN/data/train_unsup/unsup_mix/mix_88.wav'
p2247
sg12
F198.41526077097507
sg13
I44100
sbag4
(g5
g6
NtRp2248
(dp2249
g9
I2
sg10
S'/home/ubuntu/DSSGAN/data/train_unsup/unsup_mix/mix_147.wav'
p2250
sg12
F153.43535147392291
sg13
I44100
sbag4
(g5
g6
NtRp2251
(dp2252
g9
I2
sg10
S'/home/ubuntu/DSSGAN/data/train_unsup/unsup_mix/mix_167.wav'
p2253
sg12
F300.44
sg13
I44100
sbag4
(g5
g6
NtRp2254
(dp2255
g9
I2
sg10
S'/home/ubuntu/DSSGAN/data/train_unsup/unsup_mix/mix_143.wav'
p2256
sg12
F375.78548752834467
sg13
I44100
sbag4
(g5
g6
NtRp2257
(dp2258
g9
I2
sg10
S'/home/ubuntu/DSSGAN/data/train_unsup/unsup_mix/mix_81.wav'
p2259
sg12
F278.27662131519276
sg13
I44100
sbag4
(g5
g6
NtRp2260
(dp2261
g9
I2
sg10
S'/home/ubuntu/DSSGAN/data/train_unsup/unsup_mix/mix_130.wav'
p2262
sg12
F278.39999999999998
sg13
I44100
sbag4
(g5
g6
NtRp2263
(dp2264
g9
I2
sg10
S'/home/ubuntu/DSSGAN/data/train_unsup/unsup_mix/mix_44.wav'
p2265
sg12
F393.81249433106575
sg13
I44100
sbag4
(g5
g6
NtRp2266
(dp2267
g9
I2
sg10
S'/home/ubuntu/DSSGAN/data/train_unsup/unsup_mix/mix_29.wav'
p2268
sg12
F258.01775510204084
sg13
I44100
sbag4
(g5
g6
NtRp2269
(dp2270
g9
I2
sg10
S'/home/ubuntu/DSSGAN/data/train_unsup/unsup_mix/mix_55.wav'
p2271
sg12
F334.77333333333331
sg13
I44100
sbag4
(g5
g6
NtRp2272
(dp2273
g9
I2
sg10
S'/home/ubuntu/DSSGAN/data/train_unsup/unsup_mix/mix_132.wav'
p2274
sg12
F368.86648526077096
sg13
I44100
sbag4
(g5
g6
NtRp2275
(dp2276
g9
I2
sg10
S'/home/ubuntu/DSSGAN/data/train_unsup/unsup_mix/mix_126.wav'
p2277
sg12
F642.39999999999998
sg13
I44100
sbag4
(g5
g6
NtRp2278
(dp2279
g9
I2
sg10
S'/home/ubuntu/DSSGAN/data/train_unsup/unsup_mix/mix_6.wav'
p2280
sg12
F186.50666666666666
sg13
I44100
sbag4
(g5
g6
NtRp2281
(dp2282
g9
I2
sg10
S'/home/ubuntu/DSSGAN/data/train_unsup/unsup_mix/mix_69.wav'
p2283
sg12
F340.92233560090705
sg13
I44100
sbag4
(g5
g6
NtRp2284
(dp2285
g9
I2
sg10
S'/home/ubuntu/DSSGAN/data/train_unsup/unsup_mix/mix_74.wav'
p2286
sg12
F166.48648526077096
sg13
I44100
sbag4
(g5
g6
NtRp2287
(dp2288
g9
I2
sg10
S'/home/ubuntu/DSSGAN/data/train_unsup/unsup_mix/mix_18.wav'
p2289
sg12
F577.06229024943309
sg13
I44100
sbag4
(g5
g6
NtRp2290
(dp2291
g9
I2
sg10
S'/home/ubuntu/DSSGAN/data/train_unsup/unsup_mix/mix_15.wav'
p2292
sg12
F501.74666666666667
sg13
I44100
sbag4
(g5
g6
NtRp2293
(dp2294
g9
I2
sg10
S'/home/ubuntu/DSSGAN/data/train_unsup/unsup_mix/mix_96.wav'
p2295
sg12
F346.46666666666664
sg13
I44100
sbag4
(g5
g6
NtRp2296
(dp2297
g9
I2
sg10
S'/home/ubuntu/DSSGAN/data/train_unsup/unsup_mix/mix_54.wav'
p2298
sg12
F399.89333333333332
sg13
I44100
sbag4
(g5
g6
NtRp2299
(dp2300
g9
I2
sg10
S'/home/ubuntu/DSSGAN/data/train_unsup/unsup_mix/mix_165.wav'
p2301
sg12
F203.24544217687074
sg13
I44100
sbag4
(g5
g6
NtRp2302
(dp2303
g9
I2
sg10
S'/home/ubuntu/DSSGAN/data/train_unsup/unsup_mix/mix_104.wav'
p2304
sg12
F326.55739229024942
sg13
I44100
sbag4
(g5
g6
NtRp2305
(dp2306
g9
I2
sg10
S'/home/ubuntu/DSSGAN/data/train_unsup/unsup_mix/mix_123.wav'
p2307
sg12
F426.89312925170066
sg13
I44100
sbag4
(g5
g6
NtRp2308
(dp2309
g9
I2
sg10
S'/home/ubuntu/DSSGAN/data/train_unsup/unsup_mix/mix_1.wav'
p2310
sg12
F435.12163265306123
sg13
I44100
sbag4
(g5
g6
NtRp2311
(dp2312
g9
I2
sg10
S'/home/ubuntu/DSSGAN/data/train_unsup/unsup_mix/mix_148.wav'
p2313
sg12
F390.43374149659866
sg13
I44100
sbag4
(g5
g6
NtRp2314
(dp2315
g9
I2
sg10
S'/home/ubuntu/DSSGAN/data/train_unsup/unsup_mix/mix_142.wav'
p2316
sg12
F408.94521541950115
sg13
I44100
sbag4
(g5
g6
NtRp2317
(dp2318
g9
I2
sg10
S'/home/ubuntu/DSSGAN/data/train_unsup/unsup_mix/mix_136.wav'
p2319
sg12
F249.02666666666667
sg13
I44100
sbag4
(g5
g6
NtRp2320
(dp2321
g9
I2
sg10
S'/home/ubuntu/DSSGAN/data/train_unsup/unsup_mix/mix_26.wav'
p2322
sg12
F343.25585034013608
sg13
I44100
sbag4
(g5
g6
NtRp2323
(dp2324
g9
I2
sg10
S'/home/ubuntu/DSSGAN/data/train_unsup/unsup_mix/mix_71.wav'
p2325
sg12
F408
sg13
I44100
sbag4
(g5
g6
NtRp2326
(dp2327
g9
I2
sg10
S'/home/ubuntu/DSSGAN/data/train_unsup/unsup_mix/mix_91.wav'
p2328
sg12
F268.44
sg13
I44100
sbag4
(g5
g6
NtRp2329
(dp2330
g9
I2
sg10
S'/home/ubuntu/DSSGAN/data/train_unsup/unsup_mix/mix_135.wav'
p2331
sg12
F276.09333333333331
sg13
I44100
sbag4
(g5
g6
NtRp2332
(dp2333
g9
I2
sg10
S'/home/ubuntu/DSSGAN/data/train_unsup/unsup_mix/mix_13.wav'
p2334
sg12
F447.40213151927435
sg13
I44100
sbag4
(g5
g6
NtRp2335
(dp2336
g9
I2
sg10
S'/home/ubuntu/DSSGAN/data/train_unsup/unsup_mix/mix_27.wav'
p2337
sg12
F342.82485260770977
sg13
I44100
sbag4
(g5
g6
NtRp2338
(dp2339
g9
I2
sg10
S'/home/ubuntu/DSSGAN/data/train_unsup/unsup_mix/mix_97.wav'
p2340
sg12
F390.84916099773244
sg13
I44100
sbag4
(g5
g6
NtRp2341
(dp2342
g9
I2
sg10
S'/home/ubuntu/DSSGAN/data/train_unsup/unsup_mix/mix_89.wav'
p2343
sg12
F430.31074829931976
sg13
I44100
sbag4
(g5
g6
NtRp2344
(dp2345
g9
I2
sg10
S'/home/ubuntu/DSSGAN/data/train_unsup/unsup_mix/mix_3.wav'
p2346
sg12
F436.14628117913833
sg13
I44100
sbag4
(g5
g6
NtRp2347
(dp2348
g9
I2
sg10
S'/home/ubuntu/DSSGAN/data/train_unsup/unsup_mix/mix_41.wav'
p2349
sg12
F358.01374149659864
sg13
I44100
sbag4
(g5
g6
NtRp2350
(dp2351
g9
I2
sg10
S'/home/ubuntu/DSSGAN/data/train_unsup/unsup_mix/mix_107.wav'
p2352
sg12
F256.5983673469388
sg13
I44100
sbag4
(g5
g6
NtRp2353
(dp2354
g9
I2
sg10
S'/home/ubuntu/DSSGAN/data/train_unsup/unsup_mix/mix_48.wav'
p2355
sg12
F223.22666666666666
sg13
I44100
sbag4
(g5
g6
NtRp2356
(dp2357
g9
I2
sg10
S'/home/ubuntu/DSSGAN/data/train_unsup/unsup_mix/mix_60.wav'
p2358
sg12
F401.47283446712021
sg13
I44100
sbag4
(g5
g6
NtRp2359
(dp2360
g9
I2
sg10
S'/home/ubuntu/DSSGAN/data/train_unsup/unsup_mix/mix_34.wav'
p2361
sg12
F258.61333333333334
sg13
I44100
sbag4
(g5
g6
NtRp2362
(dp2363
g9
I2
sg10
S'/home/ubuntu/DSSGAN/data/train_unsup/unsup_mix/mix_67.wav'
p2364
sg12
F246.74666666666667
sg13
I44100
sbag4
(g5
g6
NtRp2365
(dp2366
g9
I2
sg10
S'/home/ubuntu/DSSGAN/data/train_unsup/unsup_mix/mix_151.wav'
p2367
sg12
F430.24185941043083
sg13
I44100
sbag4
(g5
g6
NtRp2368
(dp2369
g9
I2
sg10
S'/home/ubuntu/DSSGAN/data/train_unsup/unsup_mix/mix_82.wav'
p2370
sg12
F379.14634920634921
sg13
I44100
sbag4
(g5
g6
NtRp2371
(dp2372
g9
I2
sg10
S'/home/ubuntu/DSSGAN/data/train_unsup/unsup_mix/mix_32.wav'
p2373
sg12
F344.46666666666664
sg13
I44100
sbag4
(g5
g6
NtRp2374
(dp2375
g9
I2
sg10
S'/home/ubuntu/DSSGAN/data/train_unsup/unsup_mix/mix_169.wav'
p2376
sg12
F406.7265986394558
sg13
I44100
sbag4
(g5
g6
NtRp2377
(dp2378
g9
I2
sg10
S'/home/ubuntu/DSSGAN/data/train_unsup/unsup_mix/mix_17.wav'
p2379
sg12
F570.72000000000003
sg13
I44100
sbag4
(g5
g6
NtRp2380
(dp2381
g9
I2
sg10
S'/home/ubuntu/DSSGAN/data/train_unsup/unsup_mix/mix_160.wav'
p2382
sg12
F407.37836734693877
sg13
I44100
sbag4
(g5
g6
NtRp2383
(dp2384
g9
I2
sg10
S'/home/ubuntu/DSSGAN/data/train_unsup/unsup_mix/mix_11.wav'
p2385
sg12
F515.12
sg13
I44100
sbag4
(g5
g6
NtRp2386
(dp2387
g9
I2
sg10
S'/home/ubuntu/DSSGAN/data/train_unsup/unsup_mix/mix_75.wav'
p2388
sg12
F366.82927437641723
sg13
I44100
sbag4
(g5
g6
NtRp2389
(dp2390
g9
I2
sg10
S'/home/ubuntu/DSSGAN/data/train_unsup/unsup_mix/mix_7.wav'
p2391
sg12
F349
sg13
I44100
sbag4
(g5
g6
NtRp2392
(dp2393
g9
I2
sg10
S'/home/ubuntu/DSSGAN/data/train_unsup/unsup_mix/mix_121.wav'
p2394
sg12
F261.93333333333334
sg13
I44100
sbag4
(g5
g6
NtRp2395
(dp2396
g9
I2
sg10
S'/home/ubuntu/DSSGAN/data/train_unsup/unsup_mix/mix_128.wav'
p2397
sg12
F277.51999999999998
sg13
I44100
sbag4
(g5
g6
NtRp2398
(dp2399
g9
I2
sg10
S'/home/ubuntu/DSSGAN/data/train_unsup/unsup_mix/mix_153.wav'
p2400
sg12
F188.25
sg13
I44100
sbag4
(g5
g6
NtRp2401
(dp2402
g9
I2
sg10
S'/home/ubuntu/DSSGAN/data/train_unsup/unsup_mix/mix_16.wav'
p2403
sg12
F186.80680272108845
sg13
I44100
sbag4
(g5
g6
NtRp2404
(dp2405
g9
I2
sg10
S'/home/ubuntu/DSSGAN/data/train_unsup/unsup_mix/mix_116.wav'
p2406
sg12
F237.14287981859411
sg13
I44100
sbag4
(g5
g6
NtRp2407
(dp2408
g9
I2
sg10
S'/home/ubuntu/DSSGAN/data/train_unsup/unsup_mix/mix_38.wav'
p2409
sg12
F262.04000000000002
sg13
I44100
sbag4
(g5
g6
NtRp2410
(dp2411
g9
I2
sg10
S'/home/ubuntu/DSSGAN/data/train_unsup/unsup_mix/mix_120.wav'
p2412
sg12
F257.78793650793654
sg13
I44100
sbag4
(g5
g6
NtRp2413
(dp2414
g9
I2
sg10
S'/home/ubuntu/DSSGAN/data/train_unsup/unsup_mix/mix_2.wav'
p2415
sg12
F205.81333333333333
sg13
I44100
sbag4
(g5
g6
NtRp2416
(dp2417
g9
I2
sg10
S'/home/ubuntu/DSSGAN/data/train_unsup/unsup_mix/mix_83.wav'
p2418
sg12
F181.34666666666666
sg13
I44100
sbag4
(g5
g6
NtRp2419
(dp2420
g9
I2
sg10
S'/home/ubuntu/DSSGAN/data/train_unsup/unsup_mix/mix_12.wav'
p2421
sg12
F245.88
sg13
I48000
sbag4
(g5
g6
NtRp2422
(dp2423
g9
I2
sg10
S'/home/ubuntu/DSSGAN/data/train_unsup/unsup_mix/mix_43.wav'
p2424
sg12
F250.37292517006802
sg13
I44100
sbag4
(g5
g6
NtRp2425
(dp2426
g9
I2
sg10
S'/home/ubuntu/DSSGAN/data/train_unsup/unsup_mix/mix_114.wav'
p2427
sg12
F266.97333333333336
sg13
I44100
sbag4
(g5
g6
NtRp2428
(dp2429
g9
I2
sg10
S'/home/ubuntu/DSSGAN/data/train_unsup/unsup_mix/mix_166.wav'
p2430
sg12
F199.97027210884355
sg13
I44100
sbag4
(g5
g6
NtRp2431
(dp2432
g9
I2
sg10
S'/home/ubuntu/DSSGAN/data/train_unsup/unsup_mix/mix_35.wav'
p2433
sg12
F271.85333333333335
sg13
I44100
sbag4
(g5
g6
NtRp2434
(dp2435
g9
I2
sg10
S'/home/ubuntu/DSSGAN/data/train_unsup/unsup_mix/mix_164.wav'
p2436
sg12
F408.58122448979594
sg13
I44100
sbag4
(g5
g6
NtRp2437
(dp2438
g9
I2
sg10
S'/home/ubuntu/DSSGAN/data/train_unsup/unsup_mix/mix_171.wav'
p2439
sg12
F345.1250113378685
sg13
I44100
sbag4
(g5
g6
NtRp2440
(dp2441
g9
I2
sg10
S'/home/ubuntu/DSSGAN/data/train_unsup/unsup_mix/mix_77.mp3'
p2442
sg12
F840
sg13
I44100
sbag4
(g5
g6
NtRp2443
(dp2444
g9
I2
sg10
S'/home/ubuntu/DSSGAN/data/train_unsup/unsup_mix/mix_33.wav'
p2445
sg12
F213.49027210884353
sg13
I44100
sbag4
(g5
g6
NtRp2446
(dp2447
g9
I2
sg10
S'/home/ubuntu/DSSGAN/data/train_unsup/unsup_mix/mix_131.wav'
p2448
sg12
F357.05333333333334
sg13
I44100
sbag4
(g5
g6
NtRp2449
(dp2450
g9
I2
sg10
S'/home/ubuntu/DSSGAN/data/train_unsup/unsup_mix/mix_86.wav'
p2451
sg12
F262.39999999999998
sg13
I44100
sbag4
(g5
g6
NtRp2452
(dp2453
g9
I2
sg10
S'/home/ubuntu/DSSGAN/data/train_unsup/unsup_mix/mix_31.wav'
p2454
sg12
F339.56916099773241
sg13
I44100
sbag4
(g5
g6
NtRp2455
(dp2456
g9
I2
sg10
S'/home/ubuntu/DSSGAN/data/train_unsup/unsup_mix/mix_110.wav'
p2457
sg12
F386.63999999999999
sg13
I44100
sbag4
(g5
g6
NtRp2458
(dp2459
g9
I2
sg10
S'/home/ubuntu/DSSGAN/data/train_unsup/unsup_mix/mix_30.wav'
p2460
sg12
F236.22666666666666
sg13
I44100
sbag4
(g5
g6
NtRp2461
(dp2462
g9
I2
sg10
S'/home/ubuntu/DSSGAN/data/train_unsup/unsup_mix/mix_173.wav'
p2463
sg12
F587.75999999999999
sg13
I44100
sbag4
(g5
g6
NtRp2464
(dp2465
g9
I2
sg10
S'/home/ubuntu/DSSGAN/data/train_unsup/unsup_mix/mix_10.wav'
p2466
sg12
F164.06666666666666
sg13
I44100
sbag4
(g5
g6
NtRp2467
(dp2468
g9
I2
sg10
S'/home/ubuntu/DSSGAN/data/train_unsup/unsup_mix/mix_45.wav'
p2469
sg12
F409.2487528344671
sg13
I44100
sbag4
(g5
g6
NtRp2470
(dp2471
g9
I2
sg10
S'/home/ubuntu/DSSGAN/data/train_unsup/unsup_mix/mix_129.wav'
p2472
sg12
F394.72192743764174
sg13
I44100
sbag4
(g5
g6
NtRp2473
(dp2474
g9
I2
sg10
S'/home/ubuntu/DSSGAN/data/train_unsup/unsup_mix/mix_102.wav'
p2475
sg12
F455.14013605442176
sg13
I44100
sbag4
(g5
g6
NtRp2476
(dp2477
g9
I2
sg10
S'/home/ubuntu/DSSGAN/data/train_unsup/unsup_mix/mix_156.wav'
p2478
sg12
F272.89333333333332
sg13
I44100
sbag4
(g5
g6
NtRp2479
(dp2480
g9
I2
sg10
S'/home/ubuntu/DSSGAN/data/train_unsup/unsup_mix/mix_78.wav'
p2481
sg12
F284.37333333333333
sg13
I44100
sbag4
(g5
g6
NtRp2482
(dp2483
g9
I2
sg10
S'/home/ubuntu/DSSGAN/data/train_unsup/unsup_mix/mix_105.wav'
p2484
sg12
F239.46666666666667
sg13
I44100
sbag4
(g5
g6
NtRp2485
(dp2486
g9
I2
sg10
S'/home/ubuntu/DSSGAN/data/train_unsup/unsup_mix/mix_49.wav'
p2487
sg12
F185.70666666666668
sg13
I44100
sbag4
(g5
g6
NtRp2488
(dp2489
g9
I2
sg10
S'/home/ubuntu/DSSGAN/data/train_unsup/unsup_mix/mix_152.wav'
p2490
sg12
F424.49333333333334
sg13
I44100
sbag4
(g5
g6
NtRp2491
(dp2492
g9
I2
sg10
S'/home/ubuntu/DSSGAN/data/train_unsup/unsup_mix/mix_70.wav'
p2493
sg12
F355.70938775510206
sg13
I44100
sbag4
(g5
g6
NtRp2494
(dp2495
g9
I2
sg10
S'/home/ubuntu/DSSGAN/data/train_unsup/unsup_mix/mix_108.wav'
p2496
sg12
F333.70698412698414
sg13
I44100
sbag4
(g5
g6
NtRp2497
(dp2498
g9
I2
sg10
S'/home/ubuntu/DSSGAN/data/train_unsup/unsup_mix/mix_111.wav'
p2499
sg12
F493
sg13
I44100
sbag4
(g5
g6
NtRp2500
(dp2501
g9
I2
sg10
S'/home/ubuntu/DSSGAN/data/train_unsup/unsup_mix/mix_19.wav'
p2502
sg12
F510.09333333333331
sg13
I44100
sbag4
(g5
g6
NtRp2503
(dp2504
g9
I2
sg10
S'/home/ubuntu/DSSGAN/data/train_unsup/unsup_mix/mix_92.wav'
p2505
sg12
F222.06691609977324
sg13
I44100
sbag4
(g5
g6
NtRp2506
(dp2507
g9
I2
sg10
S'/home/ubuntu/DSSGAN/data/train_unsup/unsup_mix/mix_73.wav'
p2508
sg12
F272.39145124716555
sg13
I44100
sbag4
(g5
g6
NtRp2509
(dp2510
g9
I2
sg10
S'/home/ubuntu/DSSGAN/data/train_unsup/unsup_mix/mix_162.wav'
p2511
sg12
F202.89331065759637
sg13
I44100
sbag4
(g5
g6
NtRp2512
(dp2513
g9
I2
sg10
S'/home/ubuntu/DSSGAN/data/train_unsup/unsup_mix/mix_50.wav'
p2514
sg12
F476.6322222222222
sg13
I44100
sbag4
(g5
g6
NtRp2515
(dp2516
g9
I2
sg10
S'/home/ubuntu/DSSGAN/data/train_unsup/unsup_mix/mix_140.wav'
p2517
sg12
F461.01780045351472
sg13
I44100
sbag4
(g5
g6
NtRp2518
(dp2519
g9
I2
sg10
S'/home/ubuntu/DSSGAN/data/train_unsup/unsup_mix/mix_168.wav'
p2520
sg12
F242.04002267573696
sg13
I44100
sbaa(lp2521
g4
(g5
g6
NtRp2522
(dp2523
g9
I1
sg10
S'/home/ubuntu/DSSGAN/data/train_unsup/unsup_acc/acc_99.wav'
p2524
sg12
F206.25
sg13
I44100
sbag4
(g5
g6
NtRp2525
(dp2526
g9
I1
sg10
S'/home/ubuntu/DSSGAN/data/train_unsup/unsup_acc/acc_136.wav'
p2527
sg12
F445.24024943310656
sg13
I44100
sbag4
(g5
g6
NtRp2528
(dp2529
g9
I1
sg10
S'/home/ubuntu/DSSGAN/data/train_unsup/unsup_acc/acc_119.wav'
p2530
sg12
F174.00002267573697
sg13
I44100
sbag4
(g5
g6
NtRp2531
(dp2532
g9
I1
sg10
S'/home/ubuntu/DSSGAN/data/train_unsup/unsup_acc/acc_129.wav'
p2533
sg12
F194.52632653061224
sg13
I44100
sbag4
(g5
g6
NtRp2534
(dp2535
g9
I2
sg10
S'/home/ubuntu/DSSGAN/data/train_unsup/unsup_acc/acc_127.wav'
p2536
sg12
F29.538458049886621
sg13
I44100
sbag4
(g5
g6
NtRp2537
(dp2538
g9
I1
sg10
S'/home/ubuntu/DSSGAN/data/train_unsup/unsup_acc/acc_130.wav'
p2539
sg12
F313.28571428571428
sg13
I44100
sbag4
(g5
g6
NtRp2540
(dp2541
g9
I1
sg10
S'/home/ubuntu/DSSGAN/data/train_unsup/unsup_acc/acc_97.wav'
p2542
sg12
F415.07142857142856
sg13
I44100
sbag4
(g5
g6
NtRp2543
(dp2544
g9
I1
sg10
S'/home/ubuntu/DSSGAN/data/train_unsup/unsup_acc/acc_38.wav'
p2545
sg12
F184.65791383219954
sg13
I44100
sbag4
(g5
g6
NtRp2546
(dp2547
g9
I1
sg10
S'/home/ubuntu/DSSGAN/data/train_unsup/unsup_acc/acc_135.wav'
p2548
sg12
F251.49004535147392
sg13
I44100
sbag4
(g5
g6
NtRp2549
(dp2550
g9
I2
sg10
S'/home/ubuntu/DSSGAN/data/train_unsup/unsup_acc/acc_176.wav'
p2551
sg12
F140.0627664399093
sg13
I44100
sbag4
(g5
g6
NtRp2552
(dp2553
g9
I1
sg10
S'/home/ubuntu/DSSGAN/data/train_unsup/unsup_acc/acc_68.wav'
p2554
sg12
F193
sg13
I44100
sbag4
(g5
g6
NtRp2555
(dp2556
g9
I1
sg10
S'/home/ubuntu/DSSGAN/data/train_unsup/unsup_acc/acc_32.wav'
p2557
sg12
F208
sg13
I44100
sbag4
(g5
g6
NtRp2558
(dp2559
g9
I1
sg10
S'/home/ubuntu/DSSGAN/data/train_unsup/unsup_acc/acc_107.wav'
p2560
sg12
F370.69566893424036
sg13
I44100
sbag4
(g5
g6
NtRp2561
(dp2562
g9
I2
sg10
S'/home/ubuntu/DSSGAN/data/train_unsup/unsup_acc/acc_179.wav'
p2563
sg12
F214.29696145124717
sg13
I44100
sbag4
(g5
g6
NtRp2564
(dp2565
g9
I1
sg10
S'/home/ubuntu/DSSGAN/data/train_unsup/unsup_acc/acc_9.wav'
p2566
sg12
F187.5
sg13
I44100
sbag4
(g5
g6
NtRp2567
(dp2568
g9
I2
sg10
S'/home/ubuntu/DSSGAN/data/train_unsup/unsup_acc/acc_149.wav'
p2569
sg12
F8
sg13
I44100
sbag4
(g5
g6
NtRp2570
(dp2571
g9
I1
sg10
S'/home/ubuntu/DSSGAN/data/train_unsup/unsup_acc/acc_71.wav'
p2572
sg12
F195.5618820861678
sg13
I44100
sbag4
(g5
g6
NtRp2573
(dp2574
g9
I1
sg10
S'/home/ubuntu/DSSGAN/data/train_unsup/unsup_acc/acc_125.wav'
p2575
sg12
F269.47827664399091
sg13
I44100
sbag4
(g5
g6
NtRp2576
(dp2577
g9
I1
sg10
S'/home/ubuntu/DSSGAN/data/train_unsup/unsup_acc/acc_105.wav'
p2578
sg12
F192.66668934240363
sg13
I44100
sbag4
(g5
g6
NtRp2579
(dp2580
g9
I2
sg10
S'/home/ubuntu/DSSGAN/data/train_unsup/unsup_acc/acc_138.wav'
p2581
sg12
F7.7419501133786852
sg13
I44100
sbag4
(g5
g6
NtRp2582
(dp2583
g9
I2
sg10
S'/home/ubuntu/DSSGAN/data/train_unsup/unsup_acc/acc_98.wav'
p2584
sg12
F7.7419274376417233
sg13
I44100
sbag4
(g5
g6
NtRp2585
(dp2586
g9
I1
sg10
S'/home/ubuntu/DSSGAN/data/train_unsup/unsup_acc/acc_50.wav'
p2587
sg12
F243.60002267573697
sg13
I44100
sbag4
(g5
g6
NtRp2588
(dp2589
g9
I1
sg10
S'/home/ubuntu/DSSGAN/data/train_unsup/unsup_acc/acc_48.wav'
p2590
sg12
F193.19999999999999
sg13
I44100
sbag4
(g5
g6
NtRp2591
(dp2592
g9
I1
sg10
S'/home/ubuntu/DSSGAN/data/train_unsup/unsup_acc/acc_30.wav'
p2593
sg12
F283.71428571428572
sg13
I44100
sbag4
(g5
g6
NtRp2594
(dp2595
g9
I1
sg10
S'/home/ubuntu/DSSGAN/data/train_unsup/unsup_acc/acc_33.wav'
p2596
sg12
F266.00002267573694
sg13
I44100
sbag4
(g5
g6
NtRp2597
(dp2598
g9
I1
sg10
S'/home/ubuntu/DSSGAN/data/train_unsup/unsup_acc/acc_58.wav'
p2599
sg12
F231.14287981859411
sg13
I44100
sbag4
(g5
g6
NtRp2600
(dp2601
g9
I1
sg10
S'/home/ubuntu/DSSGAN/data/train_unsup/unsup_acc/acc_92.wav'
p2602
sg12
F153.47369614512471
sg13
I44100
sbag4
(g5
g6
NtRp2603
(dp2604
g9
I2
sg10
S'/home/ubuntu/DSSGAN/data/train_unsup/unsup_acc/acc_153.wav'
p2605
sg12
F14.11766439909297
sg13
I44100
sbag4
(g5
g6
NtRp2606
(dp2607
g9
I1
sg10
S'/home/ubuntu/DSSGAN/data/train_unsup/unsup_acc/acc_74.wav'
p2608
sg12
F441.75
sg13
I44100
sbag4
(g5
g6
NtRp2609
(dp2610
g9
I1
sg10
S'/home/ubuntu/DSSGAN/data/train_unsup/unsup_acc/acc_16.wav'
p2611
sg12
F204
sg13
I44100
sbag4
(g5
g6
NtRp2612
(dp2613
g9
I1
sg10
S'/home/ubuntu/DSSGAN/data/train_unsup/unsup_acc/acc_158.wav'
p2614
sg12
F300.66668934240363
sg13
I44100
sbag4
(g5
g6
NtRp2615
(dp2616
g9
I2
sg10
S'/home/ubuntu/DSSGAN/data/train_unsup/unsup_acc/acc_42.wav'
p2617
sg12
F24
sg13
I44100
sbag4
(g5
g6
NtRp2618
(dp2619
g9
I1
sg10
S'/home/ubuntu/DSSGAN/data/train_unsup/unsup_acc/acc_84.wav'
p2620
sg12
F370.69566893424036
sg13
I44100
sbag4
(g5
g6
NtRp2621
(dp2622
g9
I1
sg10
S'/home/ubuntu/DSSGAN/data/train_unsup/unsup_acc/acc_93.wav'
p2623
sg12
F210
sg13
I44100
sbag4
(g5
g6
NtRp2624
(dp2625
g9
I1
sg10
S'/home/ubuntu/DSSGAN/data/train_unsup/unsup_acc/acc_55.wav'
p2626
sg12
F183.07895691609977
sg13
I44100
sbag4
(g5
g6
NtRp2627
(dp2628
g9
I2
sg10
S'/home/ubuntu/DSSGAN/data/train_unsup/unsup_acc/acc_36.wav'
p2629
sg12
F7.8688662131519278
sg13
I44100
sbag4
(g5
g6
NtRp2630
(dp2631
g9
I1
sg10
S'/home/ubuntu/DSSGAN/data/train_unsup/unsup_acc/acc_8.wav'
p2632
sg12
F216.76922902494331
sg13
I44100
sbag4
(g5
g6
NtRp2633
(dp2634
g9
I1
sg10
S'/home/ubuntu/DSSGAN/data/train_unsup/unsup_acc/acc_79.wav'
p2635
sg12
F287.57142857142856
sg13
I44100
sbag4
(g5
g6
NtRp2636
(dp2637
g9
I1
sg10
S'/home/ubuntu/DSSGAN/data/train_unsup/unsup_acc/acc_35.wav'
p2638
sg12
F150.03045351473924
sg13
I44100
sbag4
(g5
g6
NtRp2639
(dp2640
g9
I2
sg10
S'/home/ubuntu/DSSGAN/data/train_unsup/unsup_acc/acc_85.wav'
p2641
sg12
F15.483877551020408
sg13
I44100
sbag4
(g5
g6
NtRp2642
(dp2643
g9
I1
sg10
S'/home/ubuntu/DSSGAN/data/train_unsup/unsup_acc/acc_1.wav'
p2644
sg12
F197.07691609977323
sg13
I44100
sbag4
(g5
g6
NtRp2645
(dp2646
g9
I1
sg10
S'/home/ubuntu/DSSGAN/data/train_unsup/unsup_acc/acc_122.wav'
p2647
sg12
F349.63637188208617
sg13
I44100
sbag4
(g5
g6
NtRp2648
(dp2649
g9
I1
sg10
S'/home/ubuntu/DSSGAN/data/train_unsup/unsup_acc/acc_157.wav'
p2650
sg12
F358.8271882086168
sg13
I44100
sbag4
(g5
g6
NtRp2651
(dp2652
g9
I2
sg10
S'/home/ubuntu/DSSGAN/data/train_unsup/unsup_acc/acc_70.wav'
p2653
sg12
F7.8688662131519278
sg13
I44100
sbag4
(g5
g6
NtRp2654
(dp2655
g9
I1
sg10
S'/home/ubuntu/DSSGAN/data/train_unsup/unsup_acc/acc_46.wav'
p2656
sg12
F324
sg13
I44100
sbag4
(g5
g6
NtRp2657
(dp2658
g9
I1
sg10
S'/home/ubuntu/DSSGAN/data/train_unsup/unsup_acc/acc_10.wav'
p2659
sg12
F225.27274376417233
sg13
I44100
sbag4
(g5
g6
NtRp2660
(dp2661
g9
I1
sg10
S'/home/ubuntu/DSSGAN/data/train_unsup/unsup_acc/acc_52.wav'
p2662
sg12
F197.44829931972788
sg13
I44100
sbag4
(g5
g6
NtRp2663
(dp2664
g9
I1
sg10
S'/home/ubuntu/DSSGAN/data/train_unsup/unsup_acc/acc_162.wav'
p2665
sg12
F54
sg13
I44100
sbag4
(g5
g6
NtRp2666
(dp2667
g9
I1
sg10
S'/home/ubuntu/DSSGAN/data/train_unsup/unsup_acc/acc_121.wav'
p2668
sg12
F216.00002267573697
sg13
I44100
sbag4
(g5
g6
NtRp2669
(dp2670
g9
I1
sg10
S'/home/ubuntu/DSSGAN/data/train_unsup/unsup_acc/acc_152.wav'
p2671
sg12
F230.25
sg13
I44100
sbag4
(g5
g6
NtRp2672
(dp2673
g9
I1
sg10
S'/home/ubuntu/DSSGAN/data/train_unsup/unsup_acc/acc_73.wav'
p2674
sg12
F243.64285714285714
sg13
I44100
sbag4
(g5
g6
NtRp2675
(dp2676
g9
I1
sg10
S'/home/ubuntu/DSSGAN/data/train_unsup/unsup_acc/acc_72.wav'
p2677
sg12
F363.75
sg13
I44100
sbag4
(g5
g6
NtRp2678
(dp2679
g9
I1
sg10
S'/home/ubuntu/DSSGAN/data/train_unsup/unsup_acc/acc_39.wav'
p2680
sg12
F200.98031746031745
sg13
I44100
sbag4
(g5
g6
NtRp2681
(dp2682
g9
I1
sg10
S'/home/ubuntu/DSSGAN/data/train_unsup/unsup_acc/acc_12.wav'
p2683
sg12
F288.85714285714283
sg13
I44100
sbag4
(g5
g6
NtRp2684
(dp2685
g9
I1
sg10
S'/home/ubuntu/DSSGAN/data/train_unsup/unsup_acc/acc_80.wav'
p2686
sg12
F196.56882086167801
sg13
I44100
sbag4
(g5
g6
NtRp2687
(dp2688
g9
I1
sg10
S'/home/ubuntu/DSSGAN/data/train_unsup/unsup_acc/acc_104.wav'
p2689
sg12
F254.68965986394556
sg13
I44100
sbag4
(g5
g6
NtRp2690
(dp2691
g9
I1
sg10
S'/home/ubuntu/DSSGAN/data/train_unsup/unsup_acc/acc_26.wav'
p2692
sg12
F290.0206575963719
sg13
I44100
sbag4
(g5
g6
NtRp2693
(dp2694
g9
I1
sg10
S'/home/ubuntu/DSSGAN/data/train_unsup/unsup_acc/acc_61.wav'
p2695
sg12
F210.86748299319729
sg13
I44100
sbag4
(g5
g6
NtRp2696
(dp2697
g9
I1
sg10
S'/home/ubuntu/DSSGAN/data/train_unsup/unsup_acc/acc_31.wav'
p2698
sg12
F244.75
sg13
I44100
sbag4
(g5
g6
NtRp2699
(dp2700
g9
I1
sg10
S'/home/ubuntu/DSSGAN/data/train_unsup/unsup_acc/acc_64.wav'
p2701
sg12
F285.66666666666669
sg13
I44100
sbag4
(g5
g6
NtRp2702
(dp2703
g9
I2
sg10
S'/home/ubuntu/DSSGAN/data/train_unsup/unsup_acc/acc_24.wav'
p2704
sg12
F9.6774149659863937
sg13
I44100
sbag4
(g5
g6
NtRp2705
(dp2706
g9
I1
sg10
S'/home/ubuntu/DSSGAN/data/train_unsup/unsup_acc/acc_21.wav'
p2707
sg12
F204.61224489795919
sg13
I44100
sbag4
(g5
g6
NtRp2708
(dp2709
g9
I2
sg10
S'/home/ubuntu/DSSGAN/data/train_unsup/unsup_acc/acc_156.wav'
p2710
sg12
F25.600000000000001
sg13
I44100
sbag4
(g5
g6
NtRp2711
(dp2712
g9
I1
sg10
S'/home/ubuntu/DSSGAN/data/train_unsup/unsup_acc/acc_56.wav'
p2713
sg12
F184.65791383219954
sg13
I44100
sbag4
(g5
g6
NtRp2714
(dp2715
g9
I1
sg10
S'/home/ubuntu/DSSGAN/data/train_unsup/unsup_acc/acc_51.wav'
p2716
sg12
F186.27274376417233
sg13
I44100
sbag4
(g5
g6
NtRp2717
(dp2718
g9
I2
sg10
S'/home/ubuntu/DSSGAN/data/train_unsup/unsup_acc/acc_86.wav'
p2719
sg12
F8
sg13
I44100
sbag4
(g5
g6
NtRp2720
(dp2721
g9
I1
sg10
S'/home/ubuntu/DSSGAN/data/train_unsup/unsup_acc/acc_103.wav'
p2722
sg12
F295.75
sg13
I44100
sbag4
(g5
g6
NtRp2723
(dp2724
g9
I1
sg10
S'/home/ubuntu/DSSGAN/data/train_unsup/unsup_acc/acc_100.wav'
p2725
sg12
F187.69566893424036
sg13
I44100
sbag4
(g5
g6
NtRp2726
(dp2727
g9
I1
sg10
S'/home/ubuntu/DSSGAN/data/train_unsup/unsup_acc/acc_13.wav'
p2728
sg12
F183.17984126984126
sg13
I44100
sbag4
(g5
g6
NtRp2729
(dp2730
g9
I1
sg10
S'/home/ubuntu/DSSGAN/data/train_unsup/unsup_acc/acc_166.wav'
p2731
sg12
F192.5
sg13
I44100
sbag4
(g5
g6
NtRp2732
(dp2733
g9
I1
sg10
S'/home/ubuntu/DSSGAN/data/train_unsup/unsup_acc/acc_147.wav'
p2734
sg12
F236.57142857142858
sg13
I44100
sbag4
(g5
g6
NtRp2735
(dp2736
g9
I1
sg10
S'/home/ubuntu/DSSGAN/data/train_unsup/unsup_acc/acc_168.wav'
p2737
sg12
F201.27274376417233
sg13
I44100
sbag4
(g5
g6
NtRp2738
(dp2739
g9
I1
sg10
S'/home/ubuntu/DSSGAN/data/train_unsup/unsup_acc/acc_7.wav'
p2740
sg12
F102.85714285714286
sg13
I44100
sbag4
(g5
g6
NtRp2741
(dp2742
g9
I1
sg10
S'/home/ubuntu/DSSGAN/data/train_unsup/unsup_acc/acc_124.wav'
p2743
sg12
F192.60002267573697
sg13
I44100
sbag4
(g5
g6
NtRp2744
(dp2745
g9
I2
sg10
S'/home/ubuntu/DSSGAN/data/train_unsup/unsup_acc/acc_177.wav'
p2746
sg12
F194.25814058956917
sg13
I44100
sbag4
(g5
g6
NtRp2747
(dp2748
g9
I2
sg10
S'/home/ubuntu/DSSGAN/data/train_unsup/unsup_acc/acc_141.wav'
p2749
sg12
F8
sg13
I44100
sbag4
(g5
g6
NtRp2750
(dp2751
g9
I1
sg10
S'/home/ubuntu/DSSGAN/data/train_unsup/unsup_acc/acc_22.wav'
p2752
sg12
F202.03918367346938
sg13
I44100
sbag4
(g5
g6
NtRp2753
(dp2754
g9
I1
sg10
S'/home/ubuntu/DSSGAN/data/train_unsup/unsup_acc/acc_169.wav'
p2755
sg12
F188.03755102040816
sg13
I44100
sbag4
(g5
g6
NtRp2756
(dp2757
g9
I1
sg10
S'/home/ubuntu/DSSGAN/data/train_unsup/unsup_acc/acc_57.wav'
p2758
sg12
F170.44739229024944
sg13
I44100
sbag4
(g5
g6
NtRp2759
(dp2760
g9
I2
sg10
S'/home/ubuntu/DSSGAN/data/train_unsup/unsup_acc/acc_123.wav'
p2761
sg12
F16
sg13
I44100
sbag4
(g5
g6
NtRp2762
(dp2763
g9
I1
sg10
S'/home/ubuntu/DSSGAN/data/train_unsup/unsup_acc/acc_90.wav'
p2764
sg12
F175.22448979591837
sg13
I44100
sbag4
(g5
g6
NtRp2765
(dp2766
g9
I1
sg10
S'/home/ubuntu/DSSGAN/data/train_unsup/unsup_acc/acc_132.wav'
p2767
sg12
F340.93331065759639
sg13
I44100
sbag4
(g5
g6
NtRp2768
(dp2769
g9
I1
sg10
S'/home/ubuntu/DSSGAN/data/train_unsup/unsup_acc/acc_76.wav'
p2770
sg12
F276.30997732426306
sg13
I44100
sbag4
(g5
g6
NtRp2771
(dp2772
g9
I1
sg10
S'/home/ubuntu/DSSGAN/data/train_unsup/unsup_acc/acc_2.wav'
p2773
sg12
F170.45820861678004
sg13
I44100
sbag4
(g5
g6
NtRp2774
(dp2775
g9
I1
sg10
S'/home/ubuntu/DSSGAN/data/train_unsup/unsup_acc/acc_28.wav'
p2776
sg12
F162
sg13
I44100
sbag4
(g5
g6
NtRp2777
(dp2778
g9
I2
sg10
S'/home/ubuntu/DSSGAN/data/train_unsup/unsup_acc/acc_165.wav'
p2779
sg12
F15.483877551020408
sg13
I44100
sbag4
(g5
g6
NtRp2780
(dp2781
g9
I1
sg10
S'/home/ubuntu/DSSGAN/data/train_unsup/unsup_acc/acc_18.wav'
p2782
sg12
F478.17392290249433
sg13
I44100
sbag4
(g5
g6
NtRp2783
(dp2784
g9
I2
sg10
S'/home/ubuntu/DSSGAN/data/train_unsup/unsup_acc/acc_172.wav'
p2785
sg12
F234.91628117913831
sg13
I44100
sbag4
(g5
g6
NtRp2786
(dp2787
g9
I1
sg10
S'/home/ubuntu/DSSGAN/data/train_unsup/unsup_acc/acc_87.wav'
p2788
sg12
F258
sg13
I44100
sbag4
(g5
g6
NtRp2789
(dp2790
g9
I1
sg10
S'/home/ubuntu/DSSGAN/data/train_unsup/unsup_acc/acc_89.wav'
p2791
sg12
F446.90321995464853
sg13
I44100
sbag4
(g5
g6
NtRp2792
(dp2793
g9
I1
sg10
S'/home/ubuntu/DSSGAN/data/train_unsup/unsup_acc/acc_140.wav'
p2794
sg12
F228
sg13
I44100
sbag4
(g5
g6
NtRp2795
(dp2796
g9
I1
sg10
S'/home/ubuntu/DSSGAN/data/train_unsup/unsup_acc/acc_66.wav'
p2797
sg12
F258
sg13
I44100
sbag4
(g5
g6
NtRp2798
(dp2799
g9
I2
sg10
S'/home/ubuntu/DSSGAN/data/train_unsup/unsup_acc/acc_101.wav'
p2800
sg12
F29.538458049886621
sg13
I44100
sbag4
(g5
g6
NtRp2801
(dp2802
g9
I1
sg10
S'/home/ubuntu/DSSGAN/data/train_unsup/unsup_acc/acc_137.wav'
p2803
sg12
F247.5
sg13
I44100
sbag4
(g5
g6
NtRp2804
(dp2805
g9
I1
sg10
S'/home/ubuntu/DSSGAN/data/train_unsup/unsup_acc/acc_108.wav'
p2806
sg12
F197.19999999999999
sg13
I44100
sbag4
(g5
g6
NtRp2807
(dp2808
g9
I1
sg10
S'/home/ubuntu/DSSGAN/data/train_unsup/unsup_acc/acc_154.wav'
p2809
sg12
F291.61412698412698
sg13
I44100
sbag4
(g5
g6
NtRp2810
(dp2811
g9
I2
sg10
S'/home/ubuntu/DSSGAN/data/train_unsup/unsup_acc/acc_94.wav'
p2812
sg12
F7.7419274376417233
sg13
I44100
sbag4
(g5
g6
NtRp2813
(dp2814
g9
I1
sg10
S'/home/ubuntu/DSSGAN/data/train_unsup/unsup_acc/acc_143.wav'
p2815
sg12
F48
sg13
I44100
sbag4
(g5
g6
NtRp2816
(dp2817
g9
I2
sg10
S'/home/ubuntu/DSSGAN/data/train_unsup/unsup_acc/acc_163.wav'
p2818
sg12
F15.238095238095237
sg13
I44100
sbag4
(g5
g6
NtRp2819
(dp2820
g9
I1
sg10
S'/home/ubuntu/DSSGAN/data/train_unsup/unsup_acc/acc_95.wav'
p2821
sg12
F224.08696145124716
sg13
I44100
sbag4
(g5
g6
NtRp2822
(dp2823
g9
I1
sg10
S'/home/ubuntu/DSSGAN/data/train_unsup/unsup_acc/acc_19.wav'
p2824
sg12
F121.45249433106576
sg13
I44100
sbag4
(g5
g6
NtRp2825
(dp2826
g9
I1
sg10
S'/home/ubuntu/DSSGAN/data/train_unsup/unsup_acc/acc_82.wav'
p2827
sg12
F192
sg13
I44100
sbag4
(g5
g6
NtRp2828
(dp2829
g9
I1
sg10
S'/home/ubuntu/DSSGAN/data/train_unsup/unsup_acc/acc_29.wav'
p2830
sg12
F208.58825396825398
sg13
I44100
sbag4
(g5
g6
NtRp2831
(dp2832
g9
I2
sg10
S'/home/ubuntu/DSSGAN/data/train_unsup/unsup_acc/acc_53.wav'
p2833
sg12
F8
sg13
I44100
sbag4
(g5
g6
NtRp2834
(dp2835
g9
I1
sg10
S'/home/ubuntu/DSSGAN/data/train_unsup/unsup_acc/acc_131.wav'
p2836
sg12
F372
sg13
I44100
sbag4
(g5
g6
NtRp2837
(dp2838
g9
I2
sg10
S'/home/ubuntu/DSSGAN/data/train_unsup/unsup_acc/acc_63.wav'
p2839
sg12
F27.428571428571427
sg13
I44100
sbag4
(g5
g6
NtRp2840
(dp2841
g9
I1
sg10
S'/home/ubuntu/DSSGAN/data/train_unsup/unsup_acc/acc_88.wav'
p2842
sg12
F211.19999999999999
sg13
I44100
sbag4
(g5
g6
NtRp2843
(dp2844
g9
I1
sg10
S'/home/ubuntu/DSSGAN/data/train_unsup/unsup_acc/acc_106.wav'
p2845
sg12
F168.47369614512471
sg13
I44100
sbag4
(g5
g6
NtRp2846
(dp2847
g9
I1
sg10
S'/home/ubuntu/DSSGAN/data/train_unsup/unsup_acc/acc_134.wav'
p2848
sg12
F183.09092970521542
sg13
I44100
sbag4
(g5
g6
NtRp2849
(dp2850
g9
I1
sg10
S'/home/ubuntu/DSSGAN/data/train_unsup/unsup_acc/acc_54.wav'
p2851
sg12
F304.58823129251698
sg13
I44100
sbag4
(g5
g6
NtRp2852
(dp2853
g9
I1
sg10
S'/home/ubuntu/DSSGAN/data/train_unsup/unsup_acc/acc_49.wav'
p2854
sg12
F287.57142857142856
sg13
I44100
sbag4
(g5
g6
NtRp2855
(dp2856
g9
I1
sg10
S'/home/ubuntu/DSSGAN/data/train_unsup/unsup_acc/acc_146.wav'
p2857
sg12
F234
sg13
I44100
sbag4
(g5
g6
NtRp2858
(dp2859
g9
I1
sg10
S'/home/ubuntu/DSSGAN/data/train_unsup/unsup_acc/acc_155.wav'
p2860
sg12
F270.81818594104311
sg13
I44100
sbag4
(g5
g6
NtRp2861
(dp2862
g9
I2
sg10
S'/home/ubuntu/DSSGAN/data/train_unsup/unsup_acc/acc_148.wav'
p2863
sg12
F15.483877551020408
sg13
I44100
sbag4
(g5
g6
NtRp2864
(dp2865
g9
I1
sg10
S'/home/ubuntu/DSSGAN/data/train_unsup/unsup_acc/acc_81.wav'
p2866
sg12
F243.64285714285714
sg13
I44100
sbag4
(g5
g6
NtRp2867
(dp2868
g9
I1
sg10
S'/home/ubuntu/DSSGAN/data/train_unsup/unsup_acc/acc_120.wav'
p2869
sg12
F347.27999999999997
sg13
I44100
sbag4
(g5
g6
NtRp2870
(dp2871
g9
I1
sg10
S'/home/ubuntu/DSSGAN/data/train_unsup/unsup_acc/acc_34.wav'
p2872
sg12
F230.86956916099774
sg13
I44100
sbag4
(g5
g6
NtRp2873
(dp2874
g9
I1
sg10
S'/home/ubuntu/DSSGAN/data/train_unsup/unsup_acc/acc_78.wav'
p2875
sg12
F149.11113378684809
sg13
I44100
sbag4
(g5
g6
NtRp2876
(dp2877
g9
I2
sg10
S'/home/ubuntu/DSSGAN/data/train_unsup/unsup_acc/acc_117.wav'
p2878
sg12
F7.7419501133786852
sg13
I44100
sbag4
(g5
g6
NtRp2879
(dp2880
g9
I1
sg10
S'/home/ubuntu/DSSGAN/data/train_unsup/unsup_acc/acc_118.wav'
p2881
sg12
F223.89473922902494
sg13
I44100
sbag4
(g5
g6
NtRp2882
(dp2883
g9
I1
sg10
S'/home/ubuntu/DSSGAN/data/train_unsup/unsup_acc/acc_40.wav'
p2884
sg12
F212.40002267573695
sg13
I44100
sbag4
(g5
g6
NtRp2885
(dp2886
g9
I2
sg10
S'/home/ubuntu/DSSGAN/data/train_unsup/unsup_acc/acc_174.wav'
p2887
sg12
F226.3481179138322
sg13
I44100
sbag4
(g5
g6
NtRp2888
(dp2889
g9
I2
sg10
S'/home/ubuntu/DSSGAN/data/train_unsup/unsup_acc/acc_112.wav'
p2890
sg12
F7.7419501133786852
sg13
I44100
sbag4
(g5
g6
NtRp2891
(dp2892
g9
I2
sg10
S'/home/ubuntu/DSSGAN/data/train_unsup/unsup_acc/acc_114.wav'
p2893
sg12
F15.737709750566893
sg13
I44100
sbag4
(g5
g6
NtRp2894
(dp2895
g9
I1
sg10
S'/home/ubuntu/DSSGAN/data/train_unsup/unsup_acc/acc_44.wav'
p2896
sg12
F202.01006802721088
sg13
I44100
sbag4
(g5
g6
NtRp2897
(dp2898
g9
I1
sg10
S'/home/ubuntu/DSSGAN/data/train_unsup/unsup_acc/acc_161.wav'
p2899
sg12
F194.00002267573697
sg13
I44100
sbag4
(g5
g6
NtRp2900
(dp2901
g9
I1
sg10
S'/home/ubuntu/DSSGAN/data/train_unsup/unsup_acc/acc_77.wav'
p2902
sg12
F322.89501133786848
sg13
I44100
sbag4
(g5
g6
NtRp2903
(dp2904
g9
I1
sg10
S'/home/ubuntu/DSSGAN/data/train_unsup/unsup_acc/acc_102.wav'
p2905
sg12
F261
sg13
I44100
sbag4
(g5
g6
NtRp2906
(dp2907
g9
I1
sg10
S'/home/ubuntu/DSSGAN/data/train_unsup/unsup_acc/acc_142.wav'
p2908
sg12
F224.5
sg13
I44100
sbag4
(g5
g6
NtRp2909
(dp2910
g9
I1
sg10
S'/home/ubuntu/DSSGAN/data/train_unsup/unsup_acc/acc_59.wav'
p2911
sg12
F285.11111111111109
sg13
I44100
sbag4
(g5
g6
NtRp2912
(dp2913
g9
I2
sg10
S'/home/ubuntu/DSSGAN/data/train_unsup/unsup_acc/acc_96.wav'
p2914
sg12
F15.483877551020408
sg13
I44100
sbag4
(g5
g6
NtRp2915
(dp2916
g9
I1
sg10
S'/home/ubuntu/DSSGAN/data/train_unsup/unsup_acc/acc_27.wav'
p2917
sg12
F160.3226984126984
sg13
I44100
sbag4
(g5
g6
NtRp2918
(dp2919
g9
I1
sg10
S'/home/ubuntu/DSSGAN/data/train_unsup/unsup_acc/acc_45.wav'
p2920
sg12
F197.99975056689343
sg13
I44100
sbag4
(g5
g6
NtRp2921
(dp2922
g9
I2
sg10
S'/home/ubuntu/DSSGAN/data/train_unsup/unsup_acc/acc_109.wav'
p2923
sg12
F15.483877551020408
sg13
I44100
sbag4
(g5
g6
NtRp2924
(dp2925
g9
I1
sg10
S'/home/ubuntu/DSSGAN/data/train_unsup/unsup_acc/acc_47.wav'
p2926
sg12
F200.20691609977325
sg13
I44100
sbag4
(g5
g6
NtRp2927
(dp2928
g9
I2
sg10
S'/home/ubuntu/DSSGAN/data/train_unsup/unsup_acc/acc_17.wav'
p2929
sg12
F7.7419274376417233
sg13
I44100
sbag4
(g5
g6
NtRp2930
(dp2931
g9
I2
sg10
S'/home/ubuntu/DSSGAN/data/train_unsup/unsup_acc/acc_175.wav'
p2932
sg12
F205.77523809523811
sg13
I44100
sbag4
(g5
g6
NtRp2933
(dp2934
g9
I1
sg10
S'/home/ubuntu/DSSGAN/data/train_unsup/unsup_acc/acc_37.wav'
p2935
sg12
F293.67566893424038
sg13
I44100
sbag4
(g5
g6
NtRp2936
(dp2937
g9
I1
sg10
S'/home/ubuntu/DSSGAN/data/train_unsup/unsup_acc/acc_65.wav'
p2938
sg12
F163.68154195011337
sg13
I44100
sbag4
(g5
g6
NtRp2939
(dp2940
g9
I2
sg10
S'/home/ubuntu/DSSGAN/data/train_unsup/unsup_acc/acc_170.wav'
p2941
sg12
F8
sg13
I44100
sbag4
(g5
g6
NtRp2942
(dp2943
g9
I2
sg10
S'/home/ubuntu/DSSGAN/data/train_unsup/unsup_acc/acc_164.wav'
p2944
sg12
F15.483877551020408
sg13
I44100
sbag4
(g5
g6
NtRp2945
(dp2946
g9
I1
sg10
S'/home/ubuntu/DSSGAN/data/train_unsup/unsup_acc/acc_67.wav'
p2947
sg12
F218.25
sg13
I44100
sbag4
(g5
g6
NtRp2948
(dp2949
g9
I2
sg10
S'/home/ubuntu/DSSGAN/data/train_unsup/unsup_acc/acc_5.wav'
p2950
sg12
F7.7419501133786852
sg13
I44100
sbag4
(g5
g6
NtRp2951
(dp2952
g9
I1
sg10
S'/home/ubuntu/DSSGAN/data/train_unsup/unsup_acc/acc_133.wav'
p2953
sg12
F157.81580498866214
sg13
I44100
sbag4
(g5
g6
NtRp2954
(dp2955
g9
I2
sg10
S'/home/ubuntu/DSSGAN/data/train_unsup/unsup_acc/acc_180.wav'
p2956
sg12
F165.30285714285714
sg13
I44100
sbag4
(g5
g6
NtRp2957
(dp2958
g9
I1
sg10
S'/home/ubuntu/DSSGAN/data/train_unsup/unsup_acc/acc_160.wav'
p2959
sg12
F194.00002267573697
sg13
I44100
sbag4
(g5
g6
NtRp2960
(dp2961
g9
I1
sg10
S'/home/ubuntu/DSSGAN/data/train_unsup/unsup_acc/acc_69.wav'
p2962
sg12
F162.5526530612245
sg13
I44100
sbag4
(g5
g6
NtRp2963
(dp2964
g9
I1
sg10
S'/home/ubuntu/DSSGAN/data/train_unsup/unsup_acc/acc_128.wav'
p2965
sg12
F255.06775510204082
sg13
I44100
sbag4
(g5
g6
NtRp2966
(dp2967
g9
I1
sg10
S'/home/ubuntu/DSSGAN/data/train_unsup/unsup_acc/acc_20.wav'
p2968
sg12
F223.26315192743763
sg13
I44100
sbag4
(g5
g6
NtRp2969
(dp2970
g9
I1
sg10
S'/home/ubuntu/DSSGAN/data/train_unsup/unsup_acc/acc_91.wav'
p2971
sg12
F203.58904761904762
sg13
I44100
sbag4
(g5
g6
NtRp2972
(dp2973
g9
I1
sg10
S'/home/ubuntu/DSSGAN/data/train_unsup/unsup_acc/acc_139.wav'
p2974
sg12
F323.14285714285717
sg13
I44100
sbag4
(g5
g6
NtRp2975
(dp2976
g9
I1
sg10
S'/home/ubuntu/DSSGAN/data/train_unsup/unsup_acc/acc_159.wav'
p2977
sg12
F348.66668934240363
sg13
I44100
sbag4
(g5
g6
NtRp2978
(dp2979
g9
I2
sg10
S'/home/ubuntu/DSSGAN/data/train_unsup/unsup_acc/acc_173.wav'
p2980
sg12
F182.04444444444445
sg13
I44100
sbag4
(g5
g6
NtRp2981
(dp2982
g9
I1
sg10
S'/home/ubuntu/DSSGAN/data/train_unsup/unsup_acc/acc_4.wav'
p2983
sg12
F231.47999999999999
sg13
I44100
sbag4
(g5
g6
NtRp2984
(dp2985
g9
I1
sg10
S'/home/ubuntu/DSSGAN/data/train_unsup/unsup_acc/acc_11.wav'
p2986
sg12
F143.33335600907029
sg13
I44100
sbag4
(g5
g6
NtRp2987
(dp2988
g9
I2
sg10
S'/home/ubuntu/DSSGAN/data/train_unsup/unsup_acc/acc_150.wav'
p2989
sg12
F29.538458049886621
sg13
I44100
sbag4
(g5
g6
NtRp2990
(dp2991
g9
I1
sg10
S'/home/ubuntu/DSSGAN/data/train_unsup/unsup_acc/acc_151.wav'
p2992
sg12
F191.68984126984128
sg13
I44100
sbag4
(g5
g6
NtRp2993
(dp2994
g9
I2
sg10
S'/home/ubuntu/DSSGAN/data/train_unsup/unsup_acc/acc_171.wav'
p2995
sg12
F142.22222222222223
sg13
I44100
sbag4
(g5
g6
NtRp2996
(dp2997
g9
I1
sg10
S'/home/ubuntu/DSSGAN/data/train_unsup/unsup_acc/acc_25.wav'
p2998
sg12
F279.25714285714287
sg13
I44100
sbag4
(g5
g6
NtRp2999
(dp3000
g9
I2
sg10
S'/home/ubuntu/DSSGAN/data/train_unsup/unsup_acc/acc_178.wav'
p3001
sg12
F121.57968253968254
sg13
I44100
sbag4
(g5
g6
NtRp3002
(dp3003
g9
I1
sg10
S'/home/ubuntu/DSSGAN/data/train_unsup/unsup_acc/acc_145.wav'
p3004
sg12
F108.65249433106575
sg13
I44100
sbag4
(g5
g6
NtRp3005
(dp3006
g9
I1
sg10
S'/home/ubuntu/DSSGAN/data/train_unsup/unsup_acc/acc_116.wav'
p3007
sg12
F415.07142857142856
sg13
I44100
sbag4
(g5
g6
NtRp3008
(dp3009
g9
I1
sg10
S'/home/ubuntu/DSSGAN/data/train_unsup/unsup_acc/acc_167.wav'
p3010
sg12
F268
sg13
I44100
sbag4
(g5
g6
NtRp3011
(dp3012
g9
I1
sg10
S'/home/ubuntu/DSSGAN/data/train_unsup/unsup_acc/acc_110.wav'
p3013
sg12
F254.68965986394556
sg13
I44100
sbag4
(g5
g6
NtRp3014
(dp3015
g9
I1
sg10
S'/home/ubuntu/DSSGAN/data/train_unsup/unsup_acc/acc_41.wav'
p3016
sg12
F258.88888888888891
sg13
I44100
sbag4
(g5
g6
NtRp3017
(dp3018
g9
I1
sg10
S'/home/ubuntu/DSSGAN/data/train_unsup/unsup_acc/acc_83.wav'
p3019
sg12
F326
sg13
I44100
sbag4
(g5
g6
NtRp3020
(dp3021
g9
I1
sg10
S'/home/ubuntu/DSSGAN/data/train_unsup/unsup_acc/acc_15.wav'
p3022
sg12
F187.41179138321996
sg13
I44100
sbag4
(g5
g6
NtRp3023
(dp3024
g9
I2
sg10
S'/home/ubuntu/DSSGAN/data/train_unsup/unsup_acc/acc_6.wav'
p3025
sg12
F25.600000000000001
sg13
I44100
sbag4
(g5
g6
NtRp3026
(dp3027
g9
I2
sg10
S'/home/ubuntu/DSSGAN/data/train_unsup/unsup_acc/acc_23.wav'
p3028
sg12
F7.7419501133786852
sg13
I44100
sbag4
(g5
g6
NtRp3029
(dp3030
g9
I1
sg10
S'/home/ubuntu/DSSGAN/data/train_unsup/unsup_acc/acc_14.wav'
p3031
sg12
F192.5
sg13
I44100
sbag4
(g5
g6
NtRp3032
(dp3033
g9
I1
sg10
S'/home/ubuntu/DSSGAN/data/train_unsup/unsup_acc/acc_144.wav'
p3034
sg12
F273.65217687074829
sg13
I44100
sbag4
(g5
g6
NtRp3035
(dp3036
g9
I1
sg10
S'/home/ubuntu/DSSGAN/data/train_unsup/unsup_acc/acc_111.wav'
p3037
sg12
F178.47761904761904
sg13
I44100
sbag4
(g5
g6
NtRp3038
(dp3039
g9
I1
sg10
S'/home/ubuntu/DSSGAN/data/train_unsup/unsup_acc/acc_126.wav'
p3040
sg12
F200.0526530612245
sg13
I44100
sbag4
(g5
g6
NtRp3041
(dp3042
g9
I1
sg10
S'/home/ubuntu/DSSGAN/data/train_unsup/unsup_acc/acc_3.wav'
p3043
sg12
F224.56777777777779
sg13
I44100
sbag4
(g5
g6
NtRp3044
(dp3045
g9
I1
sg10
S'/home/ubuntu/DSSGAN/data/train_unsup/unsup_acc/acc_43.wav'
p3046
sg12
F357.69231292517009
sg13
I44100
sbag4
(g5
g6
NtRp3047
(dp3048
g9
I1
sg10
S'/home/ubuntu/DSSGAN/data/train_unsup/unsup_acc/acc_115.wav'
p3049
sg12
F190
sg13
I44100
sbag4
(g5
g6
NtRp3050
(dp3051
g9
I1
sg10
S'/home/ubuntu/DSSGAN/data/train_unsup/unsup_acc/acc_75.wav'
p3052
sg12
F313.28571428571428
sg13
I44100
sbag4
(g5
g6
NtRp3053
(dp3054
g9
I1
sg10
S'/home/ubuntu/DSSGAN/data/train_unsup/unsup_acc/acc_113.wav'
p3055
sg12
F250.94120181405896
sg13
I44100
sbag4
(g5
g6
NtRp3056
(dp3057
g9
I1
sg10
S'/home/ubuntu/DSSGAN/data/train_unsup/unsup_acc/acc_60.wav'
p3058
sg12
F207.73024943310656
sg13
I44100
sbag4
(g5
g6
NtRp3059
(dp3060
g9
I2
sg10
S'/home/ubuntu/DSSGAN/data/train_unsup/unsup_acc/acc_62.wav'
p3061
sg12
F8
sg13
I44100
sbaa(lp3062
g4
(g5
g6
NtRp3063
(dp3064
g9
I2
sg10
S'/home/ubuntu/DSSGAN/data/train_unsup/unsup_drums/drums_95.wav'
p3065
sg12
F10.105979166666666
sg13
I48000
sbag4
(g5
g6
NtRp3066
(dp3067
g9
I2
sg10
S'/home/ubuntu/DSSGAN/data/train_unsup/unsup_drums/drums_42.wav'
p3068
sg12
F20.210544217687076
sg13
I44100
sbag4
(g5
g6
NtRp3069
(dp3070
g9
I2
sg10
S'/home/ubuntu/DSSGAN/data/train_unsup/unsup_drums/drums_55.wav'
p3071
sg12
F12.000708333333334
sg13
I48000
sbag4
(g5
g6
NtRp3072
(dp3073
g9
I2
sg10
S'/home/ubuntu/DSSGAN/data/train_unsup/unsup_drums/drums_13.wav'
p3074
sg12
F22.069115646258503
sg13
I44100
sbag4
(g5
g6
NtRp3075
(dp3076
g9
I2
sg10
S'/home/ubuntu/DSSGAN/data/train_unsup/unsup_drums/drums_64.wav'
p3077
sg12
F10.105979166666666
sg13
I48000
sbag4
(g5
g6
NtRp3078
(dp3079
g9
I2
sg10
S'/home/ubuntu/DSSGAN/data/train_unsup/unsup_drums/drums_9.wav'
p3080
sg12
F11.429270833333334
sg13
I48000
sbag4
(g5
g6
NtRp3081
(dp3082
g9
I2
sg10
S'/home/ubuntu/DSSGAN/data/train_unsup/unsup_drums/drums_19.wav'
p3083
sg12
F12
sg13
I44100
sbag4
(g5
g6
NtRp3084
(dp3085
g9
I2
sg10
S'/home/ubuntu/DSSGAN/data/train_unsup/unsup_drums/drums_119.wav'
p3086
sg12
F21.333333333333332
sg13
I44100
sbag4
(g5
g6
NtRp3087
(dp3088
g9
I2
sg10
S'/home/ubuntu/DSSGAN/data/train_unsup/unsup_drums/drums_131.wav'
p3089
sg12
F10.787229166666666
sg13
I48000
sbag4
(g5
g6
NtRp3090
(dp3091
g9
I2
sg10
S'/home/ubuntu/DSSGAN/data/train_unsup/unsup_drums/drums_97.wav'
p3092
sg12
F11.429270833333334
sg13
I48000
sbag4
(g5
g6
NtRp3093
(dp3094
g9
I2
sg10
S'/home/ubuntu/DSSGAN/data/train_unsup/unsup_drums/drums_63.wav'
p3095
sg12
F8.4217708333333334
sg13
I48000
sbag4
(g5
g6
NtRp3096
(dp3097
g9
I2
sg10
S'/home/ubuntu/DSSGAN/data/train_unsup/unsup_drums/drums_83.wav'
p3098
sg12
F7.8688662131519278
sg13
I44100
sbag4
(g5
g6
NtRp3099
(dp3100
g9
I2
sg10
S'/home/ubuntu/DSSGAN/data/train_unsup/unsup_drums/drums_1.wav'
p3101
sg12
F10.666666666666666
sg13
I44100
sbag4
(g5
g6
NtRp3102
(dp3103
g9
I2
sg10
S'/home/ubuntu/DSSGAN/data/train_unsup/unsup_drums/drums_24.wav'
p3104
sg12
F20.869569160997731
sg13
I44100
sbag4
(g5
g6
NtRp3105
(dp3106
g9
I2
sg10
S'/home/ubuntu/DSSGAN/data/train_unsup/unsup_drums/drums_32.wav'
p3107
sg12
F7.5796666666666663
sg13
I48000
sbag4
(g5
g6
NtRp3108
(dp3109
g9
I2
sg10
S'/home/ubuntu/DSSGAN/data/train_unsup/unsup_drums/drums_136.wav'
p3110
sg12
F11.429291666666666
sg13
I48000
sbag4
(g5
g6
NtRp3111
(dp3112
g9
I2
sg10
S'/home/ubuntu/DSSGAN/data/train_unsup/unsup_drums/drums_25.wav'
p3113
sg12
F15.737709750566893
sg13
I44100
sbag4
(g5
g6
NtRp3114
(dp3115
g9
I2
sg10
S'/home/ubuntu/DSSGAN/data/train_unsup/unsup_drums/drums_52.wav'
p3116
sg12
F8.4217708333333334
sg13
I48000
sbag4
(g5
g6
NtRp3117
(dp3118
g9
I2
sg10
S'/home/ubuntu/DSSGAN/data/train_unsup/unsup_drums/drums_14.wav'
p3119
sg12
F7.3853333333333335
sg13
I48000
sbag4
(g5
g6
NtRp3120
(dp3121
g9
I2
sg10
S'/home/ubuntu/DSSGAN/data/train_unsup/unsup_drums/drums_76.wav'
p3122
sg12
F7.3853333333333335
sg13
I48000
sbag4
(g5
g6
NtRp3123
(dp3124
g9
I2
sg10
S'/home/ubuntu/DSSGAN/data/train_unsup/unsup_drums/drums_101.wav'
p3125
sg12
F15.737709750566893
sg13
I44100
sbag4
(g5
g6
NtRp3126
(dp3127
g9
I2
sg10
S'/home/ubuntu/DSSGAN/data/train_unsup/unsup_drums/drums_67.wav'
p3128
sg12
F12.152604166666666
sg13
I48000
sbag4
(g5
g6
NtRp3129
(dp3130
g9
I2
sg10
S'/home/ubuntu/DSSGAN/data/train_unsup/unsup_drums/drums_133.wav'
p3131
sg12
F12.152604166666666
sg13
I48000
sbag4
(g5
g6
NtRp3132
(dp3133
g9
I2
sg10
S'/home/ubuntu/DSSGAN/data/train_unsup/unsup_drums/drums_100.wav'
p3134
sg12
F11.429270833333334
sg13
I48000
sbag4
(g5
g6
NtRp3135
(dp3136
g9
I1
sg10
S'/home/ubuntu/DSSGAN/data/train_unsup/unsup_drums/drums_17.wav'
p3137
sg12
F249.89691609977325
sg13
I44100
sbag4
(g5
g6
NtRp3138
(dp3139
g9
I2
sg10
S'/home/ubuntu/DSSGAN/data/train_unsup/unsup_drums/drums_11.wav'
p3140
sg12
F7.8688662131519278
sg13
I44100
sbag4
(g5
g6
NtRp3141
(dp3142
g9
I2
sg10
S'/home/ubuntu/DSSGAN/data/train_unsup/unsup_drums/drums_103.wav'
p3143
sg12
F10.787229166666666
sg13
I48000
sbag4
(g5
g6
NtRp3144
(dp3145
g9
I2
sg10
S'/home/ubuntu/DSSGAN/data/train_unsup/unsup_drums/drums_74.wav'
p3146
sg12
F16
sg13
I44100
sbag4
(g5
g6
NtRp3147
(dp3148
g9
I2
sg10
S'/home/ubuntu/DSSGAN/data/train_unsup/unsup_drums/drums_12.wav'
p3149
sg12
F10.667395833333334
sg13
I48000
sbag4
(g5
g6
NtRp3150
(dp3151
g9
I2
sg10
S'/home/ubuntu/DSSGAN/data/train_unsup/unsup_drums/drums_69.wav'
p3152
sg12
F8.5721458333333338
sg13
I48000
sbag4
(g5
g6
NtRp3153
(dp3154
g9
I2
sg10
S'/home/ubuntu/DSSGAN/data/train_unsup/unsup_drums/drums_89.wav'
p3155
sg12
F16
sg13
I44100
sbag4
(g5
g6
NtRp3156
(dp3157
g9
I2
sg10
S'/home/ubuntu/DSSGAN/data/train_unsup/unsup_drums/drums_93.wav'
p3158
sg12
F10.105979166666666
sg13
I48000
sbag4
(g5
g6
NtRp3159
(dp3160
g9
I2
sg10
S'/home/ubuntu/DSSGAN/data/train_unsup/unsup_drums/drums_8.wav'
p3161
sg12
F10.105979166666666
sg13
I48000
sbag4
(g5
g6
NtRp3162
(dp3163
g9
I2
sg10
S'/home/ubuntu/DSSGAN/data/train_unsup/unsup_drums/drums_92.wav'
p3164
sg12
F7.3853333333333335
sg13
I48000
sbag4
(g5
g6
NtRp3165
(dp3166
g9
I2
sg10
S'/home/ubuntu/DSSGAN/data/train_unsup/unsup_drums/drums_71.wav'
p3167
sg12
F8.5721458333333338
sg13
I48000
sbag4
(g5
g6
NtRp3168
(dp3169
g9
I2
sg10
S'/home/ubuntu/DSSGAN/data/train_unsup/unsup_drums/drums_20.wav'
p3170
sg12
F12.152604166666666
sg13
I48000
sbag4
(g5
g6
NtRp3171
(dp3172
g9
I2
sg10
S'/home/ubuntu/DSSGAN/data/train_unsup/unsup_drums/drums_90.wav'
p3173
sg12
F10.787229166666666
sg13
I48000
sbag4
(g5
g6
NtRp3174
(dp3175
g9
I2
sg10
S'/home/ubuntu/DSSGAN/data/train_unsup/unsup_drums/drums_106.wav'
p3176
sg12
F8.5721458333333338
sg13
I48000
sbag4
(g5
g6
NtRp3177
(dp3178
g9
I2
sg10
S'/home/ubuntu/DSSGAN/data/train_unsup/unsup_drums/drums_6.wav'
p3179
sg12
F12.000708333333334
sg13
I48000
sbag4
(g5
g6
NtRp3180
(dp3181
g9
I2
sg10
S'/home/ubuntu/DSSGAN/data/train_unsup/unsup_drums/drums_35.wav'
p3182
sg12
F10.549455782312926
sg13
I44100
sbag4
(g5
g6
NtRp3183
(dp3184
g9
I2
sg10
S'/home/ubuntu/DSSGAN/data/train_unsup/unsup_drums/drums_137.wav'
p3185
sg12
F14.769937499999999
sg13
I48000
sbag4
(g5
g6
NtRp3186
(dp3187
g9
I2
sg10
S'/home/ubuntu/DSSGAN/data/train_unsup/unsup_drums/drums_39.wav'
p3188
sg12
F10.105979166666666
sg13
I48000
sbag4
(g5
g6
NtRp3189
(dp3190
g9
I2
sg10
S'/home/ubuntu/DSSGAN/data/train_unsup/unsup_drums/drums_70.wav'
p3191
sg12
F8.4217708333333334
sg13
I48000
sbag4
(g5
g6
NtRp3192
(dp3193
g9
I2
sg10
S'/home/ubuntu/DSSGAN/data/train_unsup/unsup_drums/drums_16.wav'
p3194
sg12
F10.787229166666666
sg13
I48000
sbag4
(g5
g6
NtRp3195
(dp3196
g9
I2
sg10
S'/home/ubuntu/DSSGAN/data/train_unsup/unsup_drums/drums_91.wav'
p3197
sg12
F7.3853333333333335
sg13
I48000
sbag4
(g5
g6
NtRp3198
(dp3199
g9
I2
sg10
S'/home/ubuntu/DSSGAN/data/train_unsup/unsup_drums/drums_104.wav'
p3200
sg12
F12.272471655328799
sg13
I44100
sbag4
(g5
g6
NtRp3201
(dp3202
g9
I2
sg10
S'/home/ubuntu/DSSGAN/data/train_unsup/unsup_drums/drums_98.wav'
p3203
sg12
F21.333333333333332
sg13
I44100
sbag4
(g5
g6
NtRp3204
(dp3205
g9
I2
sg10
S'/home/ubuntu/DSSGAN/data/train_unsup/unsup_drums/drums_56.wav'
p3206
sg12
F21.758185941043084
sg13
I44100
sbag4
(g5
g6
NtRp3207
(dp3208
g9
I2
sg10
S'/home/ubuntu/DSSGAN/data/train_unsup/unsup_drums/drums_88.wav'
p3209
sg12
F16.695668934240363
sg13
I44100
sbag4
(g5
g6
NtRp3210
(dp3211
g9
I2
sg10
S'/home/ubuntu/DSSGAN/data/train_unsup/unsup_drums/drums_10.wav'
p3212
sg12
F7.3853333333333335
sg13
I48000
sbag4
(g5
g6
NtRp3213
(dp3214
g9
I2
sg10
S'/home/ubuntu/DSSGAN/data/train_unsup/unsup_drums/drums_23.wav'
p3215
sg12
F10.434829931972789
sg13
I44100
sbag4
(g5
g6
NtRp3216
(dp3217
g9
I2
sg10
S'/home/ubuntu/DSSGAN/data/train_unsup/unsup_drums/drums_53.wav'
p3218
sg12
F8.5721458333333338
sg13
I48000
sbag4
(g5
g6
NtRp3219
(dp3220
g9
I2
sg10
S'/home/ubuntu/DSSGAN/data/train_unsup/unsup_drums/drums_40.wav'
p3221
sg12
F16
sg13
I44100
sbag4
(g5
g6
NtRp3222
(dp3223
g9
I2
sg10
S'/home/ubuntu/DSSGAN/data/train_unsup/unsup_drums/drums_80.wav'
p3224
sg12
F8.5721458333333338
sg13
I48000
sbag4
(g5
g6
NtRp3225
(dp3226
g9
I2
sg10
S'/home/ubuntu/DSSGAN/data/train_unsup/unsup_drums/drums_36.wav'
p3227
sg12
F10.787229166666666
sg13
I48000
sbag4
(g5
g6
NtRp3228
(dp3229
g9
I1
sg10
S'/home/ubuntu/DSSGAN/data/train_unsup/unsup_drums/drums_107.wav'
p3230
sg12
F163.90244897959184
sg13
I44100
sbag4
(g5
g6
NtRp3231
(dp3232
g9
I2
sg10
S'/home/ubuntu/DSSGAN/data/train_unsup/unsup_drums/drums_41.wav'
p3233
sg12
F16
sg13
I44100
sbag4
(g5
g6
NtRp3234
(dp3235
g9
I2
sg10
S'/home/ubuntu/DSSGAN/data/train_unsup/unsup_drums/drums_57.wav'
p3236
sg12
F7.3853333333333335
sg13
I48000
sbag4
(g5
g6
NtRp3237
(dp3238
g9
I2
sg10
S'/home/ubuntu/DSSGAN/data/train_unsup/unsup_drums/drums_45.wav'
p3239
sg12
F7.3853333333333335
sg13
I48000
sbag4
(g5
g6
NtRp3240
(dp3241
g9
I2
sg10
S'/home/ubuntu/DSSGAN/data/train_unsup/unsup_drums/drums_141.wav'
p3242
sg12
F8.5721458333333338
sg13
I48000
sbag4
(g5
g6
NtRp3243
(dp3244
g9
I2
sg10
S'/home/ubuntu/DSSGAN/data/train_unsup/unsup_drums/drums_44.wav'
p3245
sg12
F9.5999999999999996
sg13
I44100
sbag4
(g5
g6
NtRp3246
(dp3247
g9
I2
sg10
S'/home/ubuntu/DSSGAN/data/train_unsup/unsup_drums/drums_124.wav'
p3248
sg12
F7.3853333333333335
sg13
I48000
sbag4
(g5
g6
NtRp3249
(dp3250
g9
I2
sg10
S'/home/ubuntu/DSSGAN/data/train_unsup/unsup_drums/drums_60.wav'
p3251
sg12
F7.3853333333333335
sg13
I48000
sbag4
(g5
g6
NtRp3252
(dp3253
g9
I1
sg10
S'/home/ubuntu/DSSGAN/data/train_unsup/unsup_drums/drums_51.wav'
p3254
sg12
F204.43428571428572
sg13
I44100
sbag4
(g5
g6
NtRp3255
(dp3256
g9
I2
sg10
S'/home/ubuntu/DSSGAN/data/train_unsup/unsup_drums/drums_81.wav'
p3257
sg12
F11.429291666666666
sg13
I48000
sbag4
(g5
g6
NtRp3258
(dp3259
g9
I2
sg10
S'/home/ubuntu/DSSGAN/data/train_unsup/unsup_drums/drums_130.wav'
p3260
sg12
F7.3853333333333335
sg13
I48000
sbag4
(g5
g6
NtRp3261
(dp3262
g9
I2
sg10
S'/home/ubuntu/DSSGAN/data/train_unsup/unsup_drums/drums_135.wav'
p3263
sg12
F7.3853333333333335
sg13
I48000
sbag4
(g5
g6
NtRp3264
(dp3265
g9
I2
sg10
S'/home/ubuntu/DSSGAN/data/train_unsup/unsup_drums/drums_102.wav'
p3266
sg12
F8.5721458333333338
sg13
I48000
sbag4
(g5
g6
NtRp3267
(dp3268
g9
I1
sg10
S'/home/ubuntu/DSSGAN/data/train_unsup/unsup_drums/drums_114.wav'
p3269
sg12
F109.26829931972789
sg13
I44100
sbag4
(g5
g6
NtRp3270
(dp3271
g9
I2
sg10
S'/home/ubuntu/DSSGAN/data/train_unsup/unsup_drums/drums_37.wav'
p3272
sg12
F16
sg13
I44100
sbag4
(g5
g6
NtRp3273
(dp3274
g9
I2
sg10
S'/home/ubuntu/DSSGAN/data/train_unsup/unsup_drums/drums_27.wav'
p3275
sg12
F7.3853333333333335
sg13
I48000
sbag4
(g5
g6
NtRp3276
(dp3277
g9
I2
sg10
S'/home/ubuntu/DSSGAN/data/train_unsup/unsup_drums/drums_122.wav'
p3278
sg12
F8.1363125000000007
sg13
I48000
sbag4
(g5
g6
NtRp3279
(dp3280
g9
I2
sg10
S'/home/ubuntu/DSSGAN/data/train_unsup/unsup_drums/drums_4.wav'
p3281
sg12
F10.787229166666666
sg13
I48000
sbag4
(g5
g6
NtRp3282
(dp3283
g9
I2
sg10
S'/home/ubuntu/DSSGAN/data/train_unsup/unsup_drums/drums_99.wav'
p3284
sg12
F11.429291666666666
sg13
I48000
sbag4
(g5
g6
NtRp3285
(dp3286
g9
I2
sg10
S'/home/ubuntu/DSSGAN/data/train_unsup/unsup_drums/drums_140.wav'
p3287
sg12
F10.787229166666666
sg13
I48000
sbag4
(g5
g6
NtRp3288
(dp3289
g9
I2
sg10
S'/home/ubuntu/DSSGAN/data/train_unsup/unsup_drums/drums_112.wav'
p3290
sg12
F10.105979166666666
sg13
I48000
sbag4
(g5
g6
NtRp3291
(dp3292
g9
I2
sg10
S'/home/ubuntu/DSSGAN/data/train_unsup/unsup_drums/drums_126.wav'
p3293
sg12
F8.5721458333333338
sg13
I48000
sbag4
(g5
g6
NtRp3294
(dp3295
g9
I2
sg10
S'/home/ubuntu/DSSGAN/data/train_unsup/unsup_drums/drums_94.wav'
p3296
sg12
F7.3853333333333335
sg13
I48000
sbag4
(g5
g6
NtRp3297
(dp3298
g9
I2
sg10
S'/home/ubuntu/DSSGAN/data/train_unsup/unsup_drums/drums_21.wav'
p3299
sg12
F187.98875283446711
sg13
I44100
sbag4
(g5
g6
NtRp3300
(dp3301
g9
I2
sg10
S'/home/ubuntu/DSSGAN/data/train_unsup/unsup_drums/drums_73.wav'
p3302
sg12
F11.429291666666666
sg13
I48000
sbag4
(g5
g6
NtRp3303
(dp3304
g9
I2
sg10
S'/home/ubuntu/DSSGAN/data/train_unsup/unsup_drums/drums_28.wav'
p3305
sg12
F10.105979166666666
sg13
I48000
sbag4
(g5
g6
NtRp3306
(dp3307
g9
I2
sg10
S'/home/ubuntu/DSSGAN/data/train_unsup/unsup_drums/drums_62.wav'
p3308
sg12
F7.3853333333333335
sg13
I48000
sbag4
(g5
g6
NtRp3309
(dp3310
g9
I2
sg10
S'/home/ubuntu/DSSGAN/data/train_unsup/unsup_drums/drums_111.wav'
p3311
sg12
F7.6190476190476186
sg13
I44100
sbag4
(g5
g6
NtRp3312
(dp3313
g9
I2
sg10
S'/home/ubuntu/DSSGAN/data/train_unsup/unsup_drums/drums_86.wav'
p3314
sg12
F174.4282993197279
sg13
I44100
sbag4
(g5
g6
NtRp3315
(dp3316
g9
I2
sg10
S'/home/ubuntu/DSSGAN/data/train_unsup/unsup_drums/drums_134.wav'
p3317
sg12
F11.162789115646259
sg13
I44100
sbag4
(g5
g6
NtRp3318
(dp3319
g9
I2
sg10
S'/home/ubuntu/DSSGAN/data/train_unsup/unsup_drums/drums_87.wav'
p3320
sg12
F10.667375
sg13
I48000
sbag4
(g5
g6
NtRp3321
(dp3322
g9
I2
sg10
S'/home/ubuntu/DSSGAN/data/train_unsup/unsup_drums/drums_77.wav'
p3323
sg12
F8.5721458333333338
sg13
I48000
sbag4
(g5
g6
NtRp3324
(dp3325
g9
I2
sg10
S'/home/ubuntu/DSSGAN/data/train_unsup/unsup_drums/drums_33.wav'
p3326
sg12
F12.152604166666666
sg13
I48000
sbag4
(g5
g6
NtRp3327
(dp3328
g9
I2
sg10
S'/home/ubuntu/DSSGAN/data/train_unsup/unsup_drums/drums_31.wav'
p3329
sg12
F21.098911564625851
sg13
I44100
sbag4
(g5
g6
NtRp3330
(dp3331
g9
I2
sg10
S'/home/ubuntu/DSSGAN/data/train_unsup/unsup_drums/drums_109.wav'
p3332
sg12
F7.3853333333333335
sg13
I48000
sbag4
(g5
g6
NtRp3333
(dp3334
g9
I2
sg10
S'/home/ubuntu/DSSGAN/data/train_unsup/unsup_drums/drums_84.wav'
p3335
sg12
F12.000708333333334
sg13
I48000
sbag4
(g5
g6
NtRp3336
(dp3337
g9
I1
sg10
S'/home/ubuntu/DSSGAN/data/train_unsup/unsup_drums/drums_117.wav'
p3338
sg12
F173.19589569160999
sg13
I44100
sbag4
(g5
g6
NtRp3339
(dp3340
g9
I2
sg10
S'/home/ubuntu/DSSGAN/data/train_unsup/unsup_drums/drums_47.wav'
p3341
sg12
F8
sg13
I44100
sbag4
(g5
g6
NtRp3342
(dp3343
g9
I2
sg10
S'/home/ubuntu/DSSGAN/data/train_unsup/unsup_drums/drums_61.wav'
p3344
sg12
F11.429291666666666
sg13
I48000
sbag4
(g5
g6
NtRp3345
(dp3346
g9
I2
sg10
S'/home/ubuntu/DSSGAN/data/train_unsup/unsup_drums/drums_123.wav'
p3347
sg12
F12.000708333333334
sg13
I48000
sbag4
(g5
g6
NtRp3348
(dp3349
g9
I2
sg10
S'/home/ubuntu/DSSGAN/data/train_unsup/unsup_drums/drums_68.wav'
p3350
sg12
F7.3846258503401359
sg13
I44100
sbag4
(g5
g6
NtRp3351
(dp3352
g9
I2
sg10
S'/home/ubuntu/DSSGAN/data/train_unsup/unsup_drums/drums_46.wav'
p3353
sg12
F7.3853333333333335
sg13
I48000
sbag4
(g5
g6
NtRp3354
(dp3355
g9
I2
sg10
S'/home/ubuntu/DSSGAN/data/train_unsup/unsup_drums/drums_127.wav'
p3356
sg12
F10.105979166666666
sg13
I48000
sbag4
(g5
g6
NtRp3357
(dp3358
g9
I2
sg10
S'/home/ubuntu/DSSGAN/data/train_unsup/unsup_drums/drums_2.wav'
p3359
sg12
F8.1363125000000007
sg13
I48000
sbag4
(g5
g6
NtRp3360
(dp3361
g9
I2
sg10
S'/home/ubuntu/DSSGAN/data/train_unsup/unsup_drums/drums_121.wav'
p3362
sg12
F8.1363125000000007
sg13
I48000
sbag4
(g5
g6
NtRp3363
(dp3364
g9
I2
sg10
S'/home/ubuntu/DSSGAN/data/train_unsup/unsup_drums/drums_75.wav'
p3365
sg12
F10.667395833333334
sg13
I48000
sbag4
(g5
g6
NtRp3366
(dp3367
g9
I2
sg10
S'/home/ubuntu/DSSGAN/data/train_unsup/unsup_drums/drums_18.wav'
p3368
sg12
F7.3853333333333335
sg13
I48000
sbag4
(g5
g6
NtRp3369
(dp3370
g9
I2
sg10
S'/home/ubuntu/DSSGAN/data/train_unsup/unsup_drums/drums_49.wav'
p3371
sg12
F7.3853333333333335
sg13
I48000
sbag4
(g5
g6
NtRp3372
(dp3373
g9
I2
sg10
S'/home/ubuntu/DSSGAN/data/train_unsup/unsup_drums/drums_30.wav'
p3374
sg12
F21.334041666666668
sg13
I48000
sbag4
(g5
g6
NtRp3375
(dp3376
g9
I2
sg10
S'/home/ubuntu/DSSGAN/data/train_unsup/unsup_drums/drums_5.wav'
p3377
sg12
F10.105979166666666
sg13
I48000
sbag4
(g5
g6
NtRp3378
(dp3379
g9
I2
sg10
S'/home/ubuntu/DSSGAN/data/train_unsup/unsup_drums/drums_125.wav'
p3380
sg12
F8.5721458333333338
sg13
I48000
sbag4
(g5
g6
NtRp3381
(dp3382
g9
I2
sg10
S'/home/ubuntu/DSSGAN/data/train_unsup/unsup_drums/drums_138.wav'
p3383
sg12
F7.3853333333333335
sg13
I48000
sbag4
(g5
g6
NtRp3384
(dp3385
g9
I2
sg10
S'/home/ubuntu/DSSGAN/data/train_unsup/unsup_drums/drums_38.wav'
p3386
sg12
F12.152604166666666
sg13
I48000
sbag4
(g5
g6
NtRp3387
(dp3388
g9
I2
sg10
S'/home/ubuntu/DSSGAN/data/train_unsup/unsup_drums/drums_82.wav'
p3389
sg12
F10.787229166666666
sg13
I48000
sbag4
(g5
g6
NtRp3390
(dp3391
g9
I2
sg10
S'/home/ubuntu/DSSGAN/data/train_unsup/unsup_drums/drums_3.wav'
p3392
sg12
F7.3853333333333335
sg13
I48000
sbag4
(g5
g6
NtRp3393
(dp3394
g9
I2
sg10
S'/home/ubuntu/DSSGAN/data/train_unsup/unsup_drums/drums_26.wav'
p3395
sg12
F7.3853333333333335
sg13
I48000
sbag4
(g5
g6
NtRp3396
(dp3397
g9
I2
sg10
S'/home/ubuntu/DSSGAN/data/train_unsup/unsup_drums/drums_65.wav'
p3398
sg12
F10.667375
sg13
I48000
sbag4
(g5
g6
NtRp3399
(dp3400
g9
I2
sg10
S'/home/ubuntu/DSSGAN/data/train_unsup/unsup_drums/drums_128.wav'
p3401
sg12
F8.1363125000000007
sg13
I48000
sbag4
(g5
g6
NtRp3402
(dp3403
g9
I2
sg10
S'/home/ubuntu/DSSGAN/data/train_unsup/unsup_drums/drums_54.wav'
p3404
sg12
F161.33224489795919
sg13
I44100
sbag4
(g5
g6
NtRp3405
(dp3406
g9
I2
sg10
S'/home/ubuntu/DSSGAN/data/train_unsup/unsup_drums/drums_79.wav'
p3407
sg12
F176.3091156462585
sg13
I44100
sbag4
(g5
g6
NtRp3408
(dp3409
g9
I2
sg10
S'/home/ubuntu/DSSGAN/data/train_unsup/unsup_drums/drums_15.wav'
p3410
sg12
F21.818185941043083
sg13
I44100
sbag4
(g5
g6
NtRp3411
(dp3412
g9
I2
sg10
S'/home/ubuntu/DSSGAN/data/train_unsup/unsup_drums/drums_29.wav'
p3413
sg12
F19.199999999999999
sg13
I44100
sbag4
(g5
g6
NtRp3414
(dp3415
g9
I2
sg10
S'/home/ubuntu/DSSGAN/data/train_unsup/unsup_drums/drums_43.wav'
p3416
sg12
F10.105979166666666
sg13
I48000
sbag4
(g5
g6
NtRp3417
(dp3418
g9
I2
sg10
S'/home/ubuntu/DSSGAN/data/train_unsup/unsup_drums/drums_7.wav'
p3419
sg12
F20.869569160997731
sg13
I44100
sbag4
(g5
g6
NtRp3420
(dp3421
g9
I2
sg10
S'/home/ubuntu/DSSGAN/data/train_unsup/unsup_drums/drums_110.wav'
p3422
sg12
F8.5721458333333338
sg13
I48000
sbag4
(g5
g6
NtRp3423
(dp3424
g9
I2
sg10
S'/home/ubuntu/DSSGAN/data/train_unsup/unsup_drums/drums_113.wav'
p3425
sg12
F10.787229166666666
sg13
I48000
sbag4
(g5
g6
NtRp3426
(dp3427
g9
I2
sg10
S'/home/ubuntu/DSSGAN/data/train_unsup/unsup_drums/drums_72.wav'
p3428
sg12
F12.000708333333334
sg13
I48000
sbag4
(g5
g6
NtRp3429
(dp3430
g9
I2
sg10
S'/home/ubuntu/DSSGAN/data/train_unsup/unsup_drums/drums_132.wav'
p3431
sg12
F15.737709750566893
sg13
I44100
sbag4
(g5
g6
NtRp3432
(dp3433
g9
I2
sg10
S'/home/ubuntu/DSSGAN/data/train_unsup/unsup_drums/drums_34.wav'
p3434
sg12
F20.210544217687076
sg13
I44100
sbag4
(g5
g6
NtRp3435
(dp3436
g9
I2
sg10
S'/home/ubuntu/DSSGAN/data/train_unsup/unsup_drums/drums_96.wav'
p3437
sg12
F8.5721458333333338
sg13
I48000
sbag4
(g5
g6
NtRp3438
(dp3439
g9
I2
sg10
S'/home/ubuntu/DSSGAN/data/train_unsup/unsup_drums/drums_85.wav'
p3440
sg12
F8.5721458333333338
sg13
I48000
sbag4
(g5
g6
NtRp3441
(dp3442
g9
I1
sg10
S'/home/ubuntu/DSSGAN/data/train_unsup/unsup_drums/drums_129.wav'
p3443
sg12
F275.12197278911566
sg13
I44100
sbag4
(g5
g6
NtRp3444
(dp3445
g9
I2
sg10
S'/home/ubuntu/DSSGAN/data/train_unsup/unsup_drums/drums_142.wav'
p3446
sg12
F11.144013605442177
sg13
I44100
sbag4
(g5
g6
NtRp3447
(dp3448
g9
I2
sg10
S'/home/ubuntu/DSSGAN/data/train_unsup/unsup_drums/drums_108.wav'
p3449
sg12
F11.429291666666666
sg13
I48000
sbag4
(g5
g6
NtRp3450
(dp3451
g9
I2
sg10
S'/home/ubuntu/DSSGAN/data/train_unsup/unsup_drums/drums_118.wav'
p3452
sg12
F12.152604166666666
sg13
I48000
sbag4
(g5
g6
NtRp3453
(dp3454
g9
I2
sg10
S'/home/ubuntu/DSSGAN/data/train_unsup/unsup_drums/drums_116.wav'
p3455
sg12
F11.429291666666666
sg13
I48000
sbag4
(g5
g6
NtRp3456
(dp3457
g9
I2
sg10
S'/home/ubuntu/DSSGAN/data/train_unsup/unsup_drums/drums_143.wav'
p3458
sg12
F8.5721458333333338
sg13
I48000
sbag4
(g5
g6
NtRp3459
(dp3460
g9
I2
sg10
S'/home/ubuntu/DSSGAN/data/train_unsup/unsup_drums/drums_139.wav'
p3461
sg12
F7.3853333333333335
sg13
I48000
sbag4
(g5
g6
NtRp3462
(dp3463
g9
I2
sg10
S'/home/ubuntu/DSSGAN/data/train_unsup/unsup_drums/drums_58.wav'
p3464
sg12
F12.152625
sg13
I48000
sbag4
(g5
g6
NtRp3465
(dp3466
g9
I2
sg10
S'/home/ubuntu/DSSGAN/data/train_unsup/unsup_drums/drums_59.wav'
p3467
sg12
F11.250708333333334
sg13
I48000
sbag4
(g5
g6
NtRp3468
(dp3469
g9
I2
sg10
S'/home/ubuntu/DSSGAN/data/train_unsup/unsup_drums/drums_105.wav'
p3470
sg12
F11.16281179138322
sg13
I44100
sbag4
(g5
g6
NtRp3471
(dp3472
g9
I2
sg10
S'/home/ubuntu/DSSGAN/data/train_unsup/unsup_drums/drums_120.wav'
p3473
sg12
F11.429291666666666
sg13
I48000
sbag4
(g5
g6
NtRp3474
(dp3475
g9
I2
sg10
S'/home/ubuntu/DSSGAN/data/train_unsup/unsup_drums/drums_144.wav'
p3476
sg12
F9.5999999999999996
sg13
I44100
sbag4
(g5
g6
NtRp3477
(dp3478
g9
I2
sg10
S'/home/ubuntu/DSSGAN/data/train_unsup/unsup_drums/drums_115.wav'
p3479
sg12
F11.429291666666666
sg13
I48000
sbag4
(g5
g6
NtRp3480
(dp3481
g9
I2
sg10
S'/home/ubuntu/DSSGAN/data/train_unsup/unsup_drums/drums_48.wav'
p3482
sg12
F20.210544217687076
sg13
I44100
sbag4
(g5
g6
NtRp3483
(dp3484
g9
I2
sg10
S'/home/ubuntu/DSSGAN/data/train_unsup/unsup_drums/drums_22.wav'
p3485
sg12
F7.3853333333333335
sg13
I48000
sbag4
(g5
g6
NtRp3486
(dp3487
g9
I1
sg10
S'/home/ubuntu/DSSGAN/data/train_unsup/unsup_drums/drums_50.wav'
p3488
sg12
F167.38009070294785
sg13
I44100
sbag4
(g5
g6
NtRp3489
(dp3490
g9
I2
sg10
S'/home/ubuntu/DSSGAN/data/train_unsup/unsup_drums/drums_78.wav'
p3491
sg12
F176.54131519274375
sg13
I44100
sbag4
(g5
g6
NtRp3492
(dp3493
g9
I2
sg10
S'/home/ubuntu/DSSGAN/data/train_unsup/unsup_drums/drums_66.wav'
p3494
sg12
F8.4217708333333334
sg13
I48000
sbaas.